Archive member included to satisfy reference by file (symbol)

libapp.a(atoi.c.obj)          (--whole-archive)
libapp.a(strtol.c.obj)        (--whole-archive)
libapp.a(strtoul.c.obj)       (--whole-archive)
libapp.a(strncasecmp.c.obj)   (--whole-archive)
libapp.a(strstr.c.obj)        (--whole-archive)
libapp.a(string.c.obj)        (--whole-archive)
libapp.a(prf.c.obj)           (--whole-archive)
libapp.a(stdout_console.c.obj)
                              (--whole-archive)
libapp.a(sprintf.c.obj)       (--whole-archive)
libapp.a(fprintf.c.obj)       (--whole-archive)
libapp.a(main.c.obj)          (--whole-archive)
zephyr/libzephyr.a(crc16_sw.c.obj)
                              (--whole-archive)
zephyr/libzephyr.a(printk.c.obj)
                              (--whole-archive)
zephyr/libzephyr.a(configs.c.obj)
                              (--whole-archive)
zephyr/libzephyr.a(utils.c.obj)
                              (--whole-archive)
zephyr/libzephyr.a(ecc_dh.c.obj)
                              (--whole-archive)
zephyr/libzephyr.a(ecc.c.obj)
                              (--whole-archive)
zephyr/libzephyr.a(aes_decrypt.c.obj)
                              (--whole-archive)
zephyr/libzephyr.a(aes_encrypt.c.obj)
                              (--whole-archive)
zephyr/libzephyr.a(cmac_mode.c.obj)
                              (--whole-archive)
zephyr/libzephyr.a(sha256.c.obj)
                              (--whole-archive)
zephyr/libzephyr.a(hmac.c.obj)
                              (--whole-archive)
zephyr/libzephyr.a(hmac_prng.c.obj)
                              (--whole-archive)
zephyr/libzephyr.a(stm32f4xx_hal.c.obj)
                              (--whole-archive)
zephyr/libzephyr.a(stm32f4xx_hal_rcc.c.obj)
                              (--whole-archive)
zephyr/libzephyr.a(stm32f4xx_ll_utils.c.obj)
                              (--whole-archive)
zephyr/libzephyr.a(stm32f4xx_ll_i2c.c.obj)
                              (--whole-archive)
zephyr/libzephyr.a(stm32f4xx_ll_spi.c.obj)
                              (--whole-archive)
zephyr/libzephyr.a(system_stm32f4xx.c.obj)
                              (--whole-archive)
zephyr/libzephyr.a(isr_tables.c.obj)
                              (--whole-archive)
zephyr/libzephyr.a(soc.c.obj)
                              (--whole-archive)
zephyr/libzephyr.a(soc_gpio.c.obj)
                              (--whole-archive)
zephyr/libzephyr.a(arm_mpu_regions.c.obj)
                              (--whole-archive)
zephyr/libzephyr.a(exc_exit.S.obj)
                              (--whole-archive)
zephyr/libzephyr.a(irq_init.c.obj)
                              (--whole-archive)
zephyr/libzephyr.a(swap.S.obj)
                              (--whole-archive)
zephyr/libzephyr.a(fault.c.obj)
                              (--whole-archive)
zephyr/libzephyr.a(irq_manage.c.obj)
                              (--whole-archive)
zephyr/libzephyr.a(thread.c.obj)
                              (--whole-archive)
zephyr/libzephyr.a(cpu_idle.S.obj)
                              (--whole-archive)
zephyr/libzephyr.a(fault_s.S.obj)
                              (--whole-archive)
zephyr/libzephyr.a(fatal.c.obj)
                              (--whole-archive)
zephyr/libzephyr.a(sys_fatal_error_handler.c.obj)
                              (--whole-archive)
zephyr/libzephyr.a(thread_abort.c.obj)
                              (--whole-archive)
zephyr/libzephyr.a(isr_wrapper.S.obj)
                              (--whole-archive)
zephyr/libzephyr.a(vector_table.S.obj)
                              (--whole-archive)
zephyr/libzephyr.a(reset.S.obj)
                              (--whole-archive)
zephyr/libzephyr.a(nmi_on_reset.S.obj)
                              (--whole-archive)
zephyr/libzephyr.a(prep_c.c.obj)
                              (--whole-archive)
zephyr/libzephyr.a(scb.c.obj)
                              (--whole-archive)
zephyr/libzephyr.a(nmi.c.obj)
                              (--whole-archive)
zephyr/libzephyr.a(exc_manage.c.obj)
                              (--whole-archive)
zephyr/libzephyr.a(arm_core_mpu.c.obj)
                              (--whole-archive)
zephyr/libzephyr.a(arm_mpu.c.obj)
                              (--whole-archive)
zephyr/libzephyr.a(uart_console.c.obj)
                              (--whole-archive)
zephyr/libzephyr.a(exti_stm32.c.obj)
                              (--whole-archive)
zephyr/libzephyr.a(stm32_ll_clock.c.obj)
                              (--whole-archive)
zephyr/libzephyr.a(stm32f4x_ll_clock.c.obj)
                              (--whole-archive)
zephyr/libzephyr.a(flash_page_layout.c.obj)
                              (--whole-archive)
zephyr/libzephyr.a(flash_stm32.c.obj)
                              (--whole-archive)
zephyr/libzephyr.a(flash_stm32f4x.c.obj)
                              (--whole-archive)
zephyr/libzephyr.a(gpio_stm32.c.obj)
                              (--whole-archive)
zephyr/libzephyr.a(i2c_ll_stm32_v1.c.obj)
                              (--whole-archive)
zephyr/libzephyr.a(i2c_ll_stm32.c.obj)
                              (--whole-archive)
zephyr/libzephyr.a(pinmux_stm32.c.obj)
                              (--whole-archive)
zephyr/libzephyr.a(uart_stm32.c.obj)
                              (--whole-archive)
zephyr/libzephyr.a(spi_ll_stm32.c.obj)
                              (--whole-archive)
zephyr/libzephyr.a(spi.c.obj)
                              (--whole-archive)
zephyr/libzephyr.a(sys_clock_init.c.obj)
                              (--whole-archive)
zephyr/libzephyr.a(cortex_m_systick.c.obj)
                              (--whole-archive)
zephyr/boards/arm/96b_carbon/libboards__arm__96b_carbon.a(pinmux.c.obj)
                              (--whole-archive)
zephyr/subsys/bluetooth/common/libsubsys__bluetooth__common.a(dummy.c.obj)
                              (--whole-archive)
zephyr/subsys/bluetooth/host/libsubsys__bluetooth__host.a(hci_ecc.c.obj)
                              (--whole-archive)
zephyr/subsys/bluetooth/host/libsubsys__bluetooth__host.a(uuid.c.obj)
                              (--whole-archive)
zephyr/subsys/bluetooth/host/libsubsys__bluetooth__host.a(hci_core.c.obj)
                              (--whole-archive)
zephyr/subsys/bluetooth/host/libsubsys__bluetooth__host.a(crypto.c.obj)
                              (--whole-archive)
zephyr/subsys/bluetooth/host/libsubsys__bluetooth__host.a(conn.c.obj)
                              (--whole-archive)
zephyr/subsys/bluetooth/host/libsubsys__bluetooth__host.a(l2cap.c.obj)
                              (--whole-archive)
zephyr/subsys/bluetooth/host/libsubsys__bluetooth__host.a(att.c.obj)
                              (--whole-archive)
zephyr/subsys/bluetooth/host/libsubsys__bluetooth__host.a(gatt.c.obj)
                              (--whole-archive)
zephyr/subsys/bluetooth/host/libsubsys__bluetooth__host.a(smp_null.c.obj)
                              (--whole-archive)
zephyr/subsys/bluetooth/host/mesh/libsubsys__bluetooth__host__mesh.a(main.c.obj)
                              (--whole-archive)
zephyr/subsys/bluetooth/host/mesh/libsubsys__bluetooth__host__mesh.a(adv.c.obj)
                              (--whole-archive)
zephyr/subsys/bluetooth/host/mesh/libsubsys__bluetooth__host__mesh.a(beacon.c.obj)
                              (--whole-archive)
zephyr/subsys/bluetooth/host/mesh/libsubsys__bluetooth__host__mesh.a(net.c.obj)
                              (--whole-archive)
zephyr/subsys/bluetooth/host/mesh/libsubsys__bluetooth__host__mesh.a(transport.c.obj)
                              (--whole-archive)
zephyr/subsys/bluetooth/host/mesh/libsubsys__bluetooth__host__mesh.a(crypto.c.obj)
                              (--whole-archive)
zephyr/subsys/bluetooth/host/mesh/libsubsys__bluetooth__host__mesh.a(access.c.obj)
                              (--whole-archive)
zephyr/subsys/bluetooth/host/mesh/libsubsys__bluetooth__host__mesh.a(cfg_srv.c.obj)
                              (--whole-archive)
zephyr/subsys/bluetooth/host/mesh/libsubsys__bluetooth__host__mesh.a(health_srv.c.obj)
                              (--whole-archive)
zephyr/subsys/bluetooth/host/mesh/libsubsys__bluetooth__host__mesh.a(friend.c.obj)
                              (--whole-archive)
zephyr/subsys/bluetooth/host/mesh/libsubsys__bluetooth__host__mesh.a(prov.c.obj)
                              (--whole-archive)
zephyr/subsys/bluetooth/host/mesh/libsubsys__bluetooth__host__mesh.a(proxy.c.obj)
                              (--whole-archive)
zephyr/subsys/net/libsubsys__net.a(buf.c.obj)
                              (--whole-archive)
zephyr/kernel/libkernel.a(device.c.obj)
                              zephyr/libzephyr.a(soc_gpio.c.obj) (device_get_binding)
zephyr/kernel/libkernel.a(errno.c.obj)
                              libapp.a(strtol.c.obj) (__errno)
zephyr/kernel/libkernel.a(init.c.obj)
                              zephyr/subsys/bluetooth/host/libsubsys__bluetooth__host.a(hci_core.c.obj) (k_call_stacks_analyze)
zephyr/kernel/libkernel.a(queue.c.obj)
                              zephyr/subsys/bluetooth/host/libsubsys__bluetooth__host.a(conn.c.obj) (k_queue_init)
zephyr/kernel/libkernel.a(sched.c.obj)
                              zephyr/kernel/libkernel.a(init.c.obj) (_add_thread_to_ready_q)
zephyr/kernel/libkernel.a(sem.c.obj)
                              zephyr/libzephyr.a(flash_stm32.c.obj) (_impl_k_sem_init)
zephyr/kernel/libkernel.a(sys_clock.c.obj)
                              zephyr/libzephyr.a(soc.c.obj) (_impl_k_uptime_get_32)
zephyr/kernel/libkernel.a(system_work_q.c.obj)
                              zephyr/subsys/bluetooth/host/libsubsys__bluetooth__host.a(hci_core.c.obj) (k_sys_work_q)
zephyr/kernel/libkernel.a(thread.c.obj)
                              zephyr/libzephyr.a(sys_fatal_error_handler.c.obj) (k_is_in_isr)
zephyr/kernel/libkernel.a(work_q.c.obj)
                              zephyr/kernel/libkernel.a(system_work_q.c.obj) (k_work_q_start)
zephyr/kernel/libkernel.a(timer.c.obj)
                              zephyr/subsys/bluetooth/host/mesh/libsubsys__bluetooth__host__mesh.a(transport.c.obj) (_timeout_remaining_get)
zephyr/kernel/libkernel.a(poll.c.obj)
                              zephyr/subsys/bluetooth/host/libsubsys__bluetooth__host.a(conn.c.obj) (k_poll_event_init)
zephyr/kernel/libkernel.a(idle.c.obj)
                              zephyr/kernel/libkernel.a(init.c.obj) (idle)
/opt/zephyr-sdk/sysroots/armv5-zephyr-eabi/usr/lib/arm-zephyr-eabi/6.2.0/armv7e-m/libgcc.a(_lshrdi3.o)
                              libapp.a(prf.c.obj) (__aeabi_llsr)
/opt/zephyr-sdk/sysroots/armv5-zephyr-eabi/usr/lib/arm-zephyr-eabi/6.2.0/armv7e-m/libgcc.a(_ashldi3.o)
                              libapp.a(prf.c.obj) (__aeabi_llsl)
/opt/zephyr-sdk/sysroots/armv5-zephyr-eabi/usr/lib/arm-zephyr-eabi/6.2.0/armv7e-m/libgcc.a(_aeabi_ldivmod.o)
                              zephyr/subsys/bluetooth/host/mesh/libsubsys__bluetooth__host__mesh.a(cfg_srv.c.obj) (__aeabi_ldivmod)
/opt/zephyr-sdk/sysroots/armv5-zephyr-eabi/usr/lib/arm-zephyr-eabi/6.2.0/armv7e-m/libgcc.a(_aeabi_uldivmod.o)
                              zephyr/kernel/libkernel.a(thread.c.obj) (__aeabi_uldivmod)
/opt/zephyr-sdk/sysroots/armv5-zephyr-eabi/usr/lib/arm-zephyr-eabi/6.2.0/armv7e-m/libgcc.a(_popcountsi2.o)
                              zephyr/subsys/bluetooth/host/mesh/libsubsys__bluetooth__host__mesh.a(transport.c.obj) (__popcountsi2)
/opt/zephyr-sdk/sysroots/armv5-zephyr-eabi/usr/lib/arm-zephyr-eabi/6.2.0/armv7e-m/libgcc.a(_udivmoddi4.o)
                              /opt/zephyr-sdk/sysroots/armv5-zephyr-eabi/usr/lib/arm-zephyr-eabi/6.2.0/armv7e-m/libgcc.a(_aeabi_ldivmod.o) (__udivmoddi4)
/opt/zephyr-sdk/sysroots/armv5-zephyr-eabi/usr/lib/arm-zephyr-eabi/6.2.0/armv7e-m/libgcc.a(_dvmd_tls.o)
                              /opt/zephyr-sdk/sysroots/armv5-zephyr-eabi/usr/lib/arm-zephyr-eabi/6.2.0/armv7e-m/libgcc.a(_aeabi_ldivmod.o) (__aeabi_ldiv0)

Allocating common symbols
Common symbol       size              file

bt_storage          0x4               zephyr/subsys/bluetooth/host/libsubsys__bluetooth__host.a(hci_core.c.obj)
_handling_timeouts  0x4               zephyr/kernel/libkernel.a(sys_clock.c.obj)
uwTick              0x4               zephyr/libzephyr.a(stm32f4xx_hal.c.obj)
_time_slice_elapsed
                    0x4               zephyr/kernel/libkernel.a(sys_clock.c.obj)
health_srv          0x4               zephyr/subsys/bluetooth/host/mesh/libsubsys__bluetooth__host__mesh.a(health_srv.c.obj)
_sys_clock_tick_count
                    0x8               zephyr/kernel/libkernel.a(sys_clock.c.obj)
k_sys_work_q        0x78              zephyr/kernel/libkernel.a(system_work_q.c.obj)

Discarded input sections

 .text          0x0000000000000000        0x0 zephyr/CMakeFiles/kernel_elf.dir/misc/empty_file.c.obj
 .data          0x0000000000000000        0x0 zephyr/CMakeFiles/kernel_elf.dir/misc/empty_file.c.obj
 .bss           0x0000000000000000        0x0 zephyr/CMakeFiles/kernel_elf.dir/misc/empty_file.c.obj
 .debug_line    0x0000000000000000        0x0 zephyr/CMakeFiles/kernel_elf.dir/misc/empty_file.c.obj
 .debug_str     0x0000000000000000      0x102 zephyr/CMakeFiles/kernel_elf.dir/misc/empty_file.c.obj
 .comment       0x0000000000000000       0x12 zephyr/CMakeFiles/kernel_elf.dir/misc/empty_file.c.obj
 .ARM.attributes
                0x0000000000000000       0x33 zephyr/CMakeFiles/kernel_elf.dir/misc/empty_file.c.obj
 .text          0x0000000000000000        0x0 zephyr/CMakeFiles/kernel_elf.dir/isr_tables.c.obj
 .data          0x0000000000000000        0x0 zephyr/CMakeFiles/kernel_elf.dir/isr_tables.c.obj
 .bss           0x0000000000000000        0x0 zephyr/CMakeFiles/kernel_elf.dir/isr_tables.c.obj
 .text          0x0000000000000000        0x0 libapp.a(atoi.c.obj)
 .data          0x0000000000000000        0x0 libapp.a(atoi.c.obj)
 .bss           0x0000000000000000        0x0 libapp.a(atoi.c.obj)
 .text.atoi     0x0000000000000000       0x48 libapp.a(atoi.c.obj)
 .debug_info    0x0000000000000000       0xe5 libapp.a(atoi.c.obj)
 .debug_abbrev  0x0000000000000000       0xe2 libapp.a(atoi.c.obj)
 .debug_loc     0x0000000000000000       0xaa libapp.a(atoi.c.obj)
 .debug_aranges
                0x0000000000000000       0x20 libapp.a(atoi.c.obj)
 .debug_ranges  0x0000000000000000       0x10 libapp.a(atoi.c.obj)
 .debug_line    0x0000000000000000       0xcd libapp.a(atoi.c.obj)
 .debug_str     0x0000000000000000      0x13d libapp.a(atoi.c.obj)
 .comment       0x0000000000000000       0x12 libapp.a(atoi.c.obj)
 .debug_frame   0x0000000000000000       0x28 libapp.a(atoi.c.obj)
 .ARM.attributes
                0x0000000000000000       0x33 libapp.a(atoi.c.obj)
 .text          0x0000000000000000        0x0 libapp.a(strtol.c.obj)
 .data          0x0000000000000000        0x0 libapp.a(strtol.c.obj)
 .bss           0x0000000000000000        0x0 libapp.a(strtol.c.obj)
 .text.strtol   0x0000000000000000       0xf2 libapp.a(strtol.c.obj)
 .debug_info    0x0000000000000000      0x1ec libapp.a(strtol.c.obj)
 .debug_abbrev  0x0000000000000000       0xde libapp.a(strtol.c.obj)
 .debug_loc     0x0000000000000000      0x345 libapp.a(strtol.c.obj)
 .debug_aranges
                0x0000000000000000       0x20 libapp.a(strtol.c.obj)
 .debug_ranges  0x0000000000000000       0x10 libapp.a(strtol.c.obj)
 .debug_line    0x0000000000000000      0x162 libapp.a(strtol.c.obj)
 .debug_str     0x0000000000000000      0x193 libapp.a(strtol.c.obj)
 .comment       0x0000000000000000       0x12 libapp.a(strtol.c.obj)
 .debug_frame   0x0000000000000000       0x34 libapp.a(strtol.c.obj)
 .ARM.attributes
                0x0000000000000000       0x33 libapp.a(strtol.c.obj)
 .text          0x0000000000000000        0x0 libapp.a(strtoul.c.obj)
 .data          0x0000000000000000        0x0 libapp.a(strtoul.c.obj)
 .bss           0x0000000000000000        0x0 libapp.a(strtoul.c.obj)
 .text.strtoul  0x0000000000000000       0xf8 libapp.a(strtoul.c.obj)
 .debug_info    0x0000000000000000      0x1e5 libapp.a(strtoul.c.obj)
 .debug_abbrev  0x0000000000000000       0xde libapp.a(strtoul.c.obj)
 .debug_loc     0x0000000000000000      0x35d libapp.a(strtoul.c.obj)
 .debug_aranges
                0x0000000000000000       0x20 libapp.a(strtoul.c.obj)
 .debug_ranges  0x0000000000000000       0x10 libapp.a(strtoul.c.obj)
 .debug_line    0x0000000000000000      0x150 libapp.a(strtoul.c.obj)
 .debug_str     0x0000000000000000      0x18c libapp.a(strtoul.c.obj)
 .comment       0x0000000000000000       0x12 libapp.a(strtoul.c.obj)
 .debug_frame   0x0000000000000000       0x30 libapp.a(strtoul.c.obj)
 .ARM.attributes
                0x0000000000000000       0x33 libapp.a(strtoul.c.obj)
 .text          0x0000000000000000        0x0 libapp.a(strncasecmp.c.obj)
 .data          0x0000000000000000        0x0 libapp.a(strncasecmp.c.obj)
 .bss           0x0000000000000000        0x0 libapp.a(strncasecmp.c.obj)
 .text.strncasecmp
                0x0000000000000000       0x2c libapp.a(strncasecmp.c.obj)
 .rodata.charmap
                0x0000000000000000      0x100 libapp.a(strncasecmp.c.obj)
 .debug_info    0x0000000000000000       0xda libapp.a(strncasecmp.c.obj)
 .debug_abbrev  0x0000000000000000       0x91 libapp.a(strncasecmp.c.obj)
 .debug_loc     0x0000000000000000       0xb7 libapp.a(strncasecmp.c.obj)
 .debug_aranges
                0x0000000000000000       0x20 libapp.a(strncasecmp.c.obj)
 .debug_ranges  0x0000000000000000       0x10 libapp.a(strncasecmp.c.obj)
 .debug_line    0x0000000000000000       0x7f libapp.a(strncasecmp.c.obj)
 .debug_str     0x0000000000000000      0x15f libapp.a(strncasecmp.c.obj)
 .comment       0x0000000000000000       0x12 libapp.a(strncasecmp.c.obj)
 .debug_frame   0x0000000000000000       0x2c libapp.a(strncasecmp.c.obj)
 .ARM.attributes
                0x0000000000000000       0x33 libapp.a(strncasecmp.c.obj)
 .text          0x0000000000000000        0x0 libapp.a(strstr.c.obj)
 .data          0x0000000000000000        0x0 libapp.a(strstr.c.obj)
 .bss           0x0000000000000000        0x0 libapp.a(strstr.c.obj)
 .text.strstr   0x0000000000000000       0x36 libapp.a(strstr.c.obj)
 .debug_info    0x0000000000000000       0xf7 libapp.a(strstr.c.obj)
 .debug_abbrev  0x0000000000000000       0xd2 libapp.a(strstr.c.obj)
 .debug_loc     0x0000000000000000       0xae libapp.a(strstr.c.obj)
 .debug_aranges
                0x0000000000000000       0x20 libapp.a(strstr.c.obj)
 .debug_ranges  0x0000000000000000       0x10 libapp.a(strstr.c.obj)
 .debug_line    0x0000000000000000      0x12b libapp.a(strstr.c.obj)
 .debug_str     0x0000000000000000      0x14c libapp.a(strstr.c.obj)
 .comment       0x0000000000000000       0x12 libapp.a(strstr.c.obj)
 .debug_frame   0x0000000000000000       0x30 libapp.a(strstr.c.obj)
 .ARM.attributes
                0x0000000000000000       0x33 libapp.a(strstr.c.obj)
 .text          0x0000000000000000        0x0 libapp.a(string.c.obj)
 .data          0x0000000000000000        0x0 libapp.a(string.c.obj)
 .bss           0x0000000000000000        0x0 libapp.a(string.c.obj)
 .text.strcpy   0x0000000000000000       0x14 libapp.a(string.c.obj)
 .text.strncpy  0x0000000000000000       0x22 libapp.a(string.c.obj)
 .text.strchr   0x0000000000000000       0x1e libapp.a(string.c.obj)
 .text.strrchr  0x0000000000000000       0x1a libapp.a(string.c.obj)
 .text.strncmp  0x0000000000000000       0x22 libapp.a(string.c.obj)
 .text.strcat   0x0000000000000000       0x16 libapp.a(string.c.obj)
 .text.strncat  0x0000000000000000       0x2a libapp.a(string.c.obj)
 .text.memmove  0x0000000000000000       0x30 libapp.a(string.c.obj)
 .text.memchr   0x0000000000000000       0x1e libapp.a(string.c.obj)
 .text          0x0000000000000000        0x0 libapp.a(prf.c.obj)
 .data          0x0000000000000000        0x0 libapp.a(prf.c.obj)
 .bss           0x0000000000000000        0x0 libapp.a(prf.c.obj)
 .text._to_x    0x0000000000000000       0x50 libapp.a(prf.c.obj)
 .text._rlrshift
                0x0000000000000000       0x1e libapp.a(prf.c.obj)
 .text._ldiv5   0x0000000000000000       0x60 libapp.a(prf.c.obj)
 .text._get_digit
                0x0000000000000000       0x2e libapp.a(prf.c.obj)
 .text._prf     0x0000000000000000      0x768 libapp.a(prf.c.obj)
 .rodata._prf.str1.1
                0x0000000000000000        0xb libapp.a(prf.c.obj)
 .rodata.shifts.3783
                0x0000000000000000        0x3 libapp.a(prf.c.obj)
 .debug_info    0x0000000000000000      0xc51 libapp.a(prf.c.obj)
 .debug_abbrev  0x0000000000000000      0x335 libapp.a(prf.c.obj)
 .debug_loc     0x0000000000000000     0x1636 libapp.a(prf.c.obj)
 .debug_aranges
                0x0000000000000000       0x40 libapp.a(prf.c.obj)
 .debug_ranges  0x0000000000000000      0x120 libapp.a(prf.c.obj)
 .debug_line    0x0000000000000000      0x45d libapp.a(prf.c.obj)
 .debug_str     0x0000000000000000      0x39e libapp.a(prf.c.obj)
 .comment       0x0000000000000000       0x12 libapp.a(prf.c.obj)
 .debug_frame   0x0000000000000000       0xb8 libapp.a(prf.c.obj)
 .ARM.attributes
                0x0000000000000000       0x33 libapp.a(prf.c.obj)
 .text          0x0000000000000000        0x0 libapp.a(stdout_console.c.obj)
 .data          0x0000000000000000        0x0 libapp.a(stdout_console.c.obj)
 .bss           0x0000000000000000        0x0 libapp.a(stdout_console.c.obj)
 .text._stdout_hook_default
                0x0000000000000000        0x6 libapp.a(stdout_console.c.obj)
 .text.__stdout_hook_install
                0x0000000000000000        0xc libapp.a(stdout_console.c.obj)
 .text.fputc    0x0000000000000000       0x14 libapp.a(stdout_console.c.obj)
 .text.fputs    0x0000000000000000       0x24 libapp.a(stdout_console.c.obj)
 .text.fwrite   0x0000000000000000       0x44 libapp.a(stdout_console.c.obj)
 .text.puts     0x0000000000000000       0x24 libapp.a(stdout_console.c.obj)
 .data._stdout_hook
                0x0000000000000000        0x4 libapp.a(stdout_console.c.obj)
 .debug_info    0x0000000000000000      0x243 libapp.a(stdout_console.c.obj)
 .debug_abbrev  0x0000000000000000      0x162 libapp.a(stdout_console.c.obj)
 .debug_loc     0x0000000000000000      0x20a libapp.a(stdout_console.c.obj)
 .debug_aranges
                0x0000000000000000       0x48 libapp.a(stdout_console.c.obj)
 .debug_ranges  0x0000000000000000       0x38 libapp.a(stdout_console.c.obj)
 .debug_line    0x0000000000000000      0x1a7 libapp.a(stdout_console.c.obj)
 .debug_str     0x0000000000000000      0x1f3 libapp.a(stdout_console.c.obj)
 .comment       0x0000000000000000       0x12 libapp.a(stdout_console.c.obj)
 .debug_frame   0x0000000000000000       0x98 libapp.a(stdout_console.c.obj)
 .ARM.attributes
                0x0000000000000000       0x33 libapp.a(stdout_console.c.obj)
 .text          0x0000000000000000        0x0 libapp.a(sprintf.c.obj)
 .data          0x0000000000000000        0x0 libapp.a(sprintf.c.obj)
 .bss           0x0000000000000000        0x0 libapp.a(sprintf.c.obj)
 .text.sprintf_out
                0x0000000000000000       0x1a libapp.a(sprintf.c.obj)
 .text.snprintf
                0x0000000000000000       0x30 libapp.a(sprintf.c.obj)
 .text.sprintf  0x0000000000000000       0x30 libapp.a(sprintf.c.obj)
 .text.vsnprintf
                0x0000000000000000       0x24 libapp.a(sprintf.c.obj)
 .text.vsprintf
                0x0000000000000000       0x28 libapp.a(sprintf.c.obj)
 .debug_info    0x0000000000000000      0x325 libapp.a(sprintf.c.obj)
 .debug_abbrev  0x0000000000000000      0x13d libapp.a(sprintf.c.obj)
 .debug_loc     0x0000000000000000      0x1cb libapp.a(sprintf.c.obj)
 .debug_aranges
                0x0000000000000000       0x40 libapp.a(sprintf.c.obj)
 .debug_ranges  0x0000000000000000       0x30 libapp.a(sprintf.c.obj)
 .debug_line    0x0000000000000000      0x163 libapp.a(sprintf.c.obj)
 .debug_str     0x0000000000000000      0x1db libapp.a(sprintf.c.obj)
 .comment       0x0000000000000000       0x12 libapp.a(sprintf.c.obj)
 .debug_frame   0x0000000000000000       0xa4 libapp.a(sprintf.c.obj)
 .ARM.attributes
                0x0000000000000000       0x33 libapp.a(sprintf.c.obj)
 .text          0x0000000000000000        0x0 libapp.a(fprintf.c.obj)
 .data          0x0000000000000000        0x0 libapp.a(fprintf.c.obj)
 .bss           0x0000000000000000        0x0 libapp.a(fprintf.c.obj)
 .text.fprintf  0x0000000000000000       0x24 libapp.a(fprintf.c.obj)
 .text.vfprintf
                0x0000000000000000       0x10 libapp.a(fprintf.c.obj)
 .text.printf   0x0000000000000000       0x24 libapp.a(fprintf.c.obj)
 .text.vprintf  0x0000000000000000       0x10 libapp.a(fprintf.c.obj)
 .debug_info    0x0000000000000000      0x223 libapp.a(fprintf.c.obj)
 .debug_abbrev  0x0000000000000000      0x120 libapp.a(fprintf.c.obj)
 .debug_loc     0x0000000000000000       0xd6 libapp.a(fprintf.c.obj)
 .debug_aranges
                0x0000000000000000       0x38 libapp.a(fprintf.c.obj)
 .debug_ranges  0x0000000000000000       0x28 libapp.a(fprintf.c.obj)
 .debug_line    0x0000000000000000      0x169 libapp.a(fprintf.c.obj)
 .debug_str     0x0000000000000000      0x1bb libapp.a(fprintf.c.obj)
 .comment       0x0000000000000000       0x12 libapp.a(fprintf.c.obj)
 .debug_frame   0x0000000000000000       0x8c libapp.a(fprintf.c.obj)
 .ARM.attributes
                0x0000000000000000       0x33 libapp.a(fprintf.c.obj)
 .text          0x0000000000000000        0x0 libapp.a(main.c.obj)
 .data          0x0000000000000000        0x0 libapp.a(main.c.obj)
 .bss           0x0000000000000000        0x0 libapp.a(main.c.obj)
 .text          0x0000000000000000        0x0 zephyr/libzephyr.a(crc16_sw.c.obj)
 .data          0x0000000000000000        0x0 zephyr/libzephyr.a(crc16_sw.c.obj)
 .bss           0x0000000000000000        0x0 zephyr/libzephyr.a(crc16_sw.c.obj)
 .text.crc16    0x0000000000000000       0x54 zephyr/libzephyr.a(crc16_sw.c.obj)
 .debug_info    0x0000000000000000      0x13b zephyr/libzephyr.a(crc16_sw.c.obj)
 .debug_abbrev  0x0000000000000000       0xc2 zephyr/libzephyr.a(crc16_sw.c.obj)
 .debug_loc     0x0000000000000000      0x101 zephyr/libzephyr.a(crc16_sw.c.obj)
 .debug_aranges
                0x0000000000000000       0x20 zephyr/libzephyr.a(crc16_sw.c.obj)
 .debug_ranges  0x0000000000000000       0x30 zephyr/libzephyr.a(crc16_sw.c.obj)
 .debug_line    0x0000000000000000      0x122 zephyr/libzephyr.a(crc16_sw.c.obj)
 .debug_str     0x0000000000000000      0x1b2 zephyr/libzephyr.a(crc16_sw.c.obj)
 .comment       0x0000000000000000       0x12 zephyr/libzephyr.a(crc16_sw.c.obj)
 .debug_frame   0x0000000000000000       0x30 zephyr/libzephyr.a(crc16_sw.c.obj)
 .ARM.attributes
                0x0000000000000000       0x33 zephyr/libzephyr.a(crc16_sw.c.obj)
 .text          0x0000000000000000        0x0 zephyr/libzephyr.a(printk.c.obj)
 .data          0x0000000000000000        0x0 zephyr/libzephyr.a(printk.c.obj)
 .bss           0x0000000000000000        0x0 zephyr/libzephyr.a(printk.c.obj)
 .text.str_out  0x0000000000000000       0x2a zephyr/libzephyr.a(printk.c.obj)
 .text.__printk_get_hook
                0x0000000000000000        0xc zephyr/libzephyr.a(printk.c.obj)
 .text._impl_k_str_out
                0x0000000000000000       0x1c zephyr/libzephyr.a(printk.c.obj)
 .text.snprintk
                0x0000000000000000       0x38 zephyr/libzephyr.a(printk.c.obj)
 .text.vsnprintk
                0x0000000000000000       0x28 zephyr/libzephyr.a(printk.c.obj)
 .text          0x0000000000000000        0x0 zephyr/libzephyr.a(configs.c.obj)
 .data          0x0000000000000000        0x0 zephyr/libzephyr.a(configs.c.obj)
 .bss           0x0000000000000000        0x0 zephyr/libzephyr.a(configs.c.obj)
 .text          0x0000000000000000        0x0 zephyr/libzephyr.a(utils.c.obj)
 .data          0x0000000000000000        0x0 zephyr/libzephyr.a(utils.c.obj)
 .bss           0x0000000000000000        0x0 zephyr/libzephyr.a(utils.c.obj)
 .text._compare
                0x0000000000000000       0x1a zephyr/libzephyr.a(utils.c.obj)
 .text          0x0000000000000000        0x0 zephyr/libzephyr.a(ecc_dh.c.obj)
 .data          0x0000000000000000        0x0 zephyr/libzephyr.a(ecc_dh.c.obj)
 .bss           0x0000000000000000        0x0 zephyr/libzephyr.a(ecc_dh.c.obj)
 .text.uECC_make_key_with_d
                0x0000000000000000       0x64 zephyr/libzephyr.a(ecc_dh.c.obj)
 .text          0x0000000000000000        0x0 zephyr/libzephyr.a(ecc.c.obj)
 .data          0x0000000000000000        0x0 zephyr/libzephyr.a(ecc.c.obj)
 .bss           0x0000000000000000        0x0 zephyr/libzephyr.a(ecc.c.obj)
 .text.uECC_set_rng
                0x0000000000000000        0xc zephyr/libzephyr.a(ecc.c.obj)
 .text.uECC_curve_private_key_size
                0x0000000000000000        0xe zephyr/libzephyr.a(ecc.c.obj)
 .text.uECC_curve_public_key_size
                0x0000000000000000        0x8 zephyr/libzephyr.a(ecc.c.obj)
 .text.cond_set
                0x0000000000000000        0xc zephyr/libzephyr.a(ecc.c.obj)
 .text.uECC_vli_cmp
                0x0000000000000000       0x32 zephyr/libzephyr.a(ecc.c.obj)
 .text.uECC_vli_modMult
                0x0000000000000000       0x24 zephyr/libzephyr.a(ecc.c.obj)
 .text.uECC_secp256r1
                0x0000000000000000        0x8 zephyr/libzephyr.a(ecc.c.obj)
 .text.uECC_generate_random_int
                0x0000000000000000       0x78 zephyr/libzephyr.a(ecc.c.obj)
 .text.uECC_compute_public_key
                0x0000000000000000       0x7e zephyr/libzephyr.a(ecc.c.obj)
 .text          0x0000000000000000        0x0 zephyr/libzephyr.a(aes_decrypt.c.obj)
 .data          0x0000000000000000        0x0 zephyr/libzephyr.a(aes_decrypt.c.obj)
 .bss           0x0000000000000000        0x0 zephyr/libzephyr.a(aes_decrypt.c.obj)
 .text.add_round_key
                0x0000000000000000       0x8a zephyr/libzephyr.a(aes_decrypt.c.obj)
 .text.inv_shift_rows
                0x0000000000000000       0x72 zephyr/libzephyr.a(aes_decrypt.c.obj)
 .text.mult_row_column
                0x0000000000000000      0x24c zephyr/libzephyr.a(aes_decrypt.c.obj)
 .text.tc_aes128_set_decrypt_key
                0x0000000000000000        0x4 zephyr/libzephyr.a(aes_decrypt.c.obj)
 .text.tc_aes_decrypt
                0x0000000000000000       0xd8 zephyr/libzephyr.a(aes_decrypt.c.obj)
 .rodata.inv_sbox
                0x0000000000000000      0x100 zephyr/libzephyr.a(aes_decrypt.c.obj)
 .debug_info    0x0000000000000000      0x73a zephyr/libzephyr.a(aes_decrypt.c.obj)
 .debug_abbrev  0x0000000000000000      0x1ba zephyr/libzephyr.a(aes_decrypt.c.obj)
 .debug_loc     0x0000000000000000      0x1d4 zephyr/libzephyr.a(aes_decrypt.c.obj)
 .debug_aranges
                0x0000000000000000       0x40 zephyr/libzephyr.a(aes_decrypt.c.obj)
 .debug_ranges  0x0000000000000000       0x48 zephyr/libzephyr.a(aes_decrypt.c.obj)
 .debug_line    0x0000000000000000      0x1b7 zephyr/libzephyr.a(aes_decrypt.c.obj)
 .debug_str     0x0000000000000000      0x27b zephyr/libzephyr.a(aes_decrypt.c.obj)
 .comment       0x0000000000000000       0x12 zephyr/libzephyr.a(aes_decrypt.c.obj)
 .debug_frame   0x0000000000000000       0xa0 zephyr/libzephyr.a(aes_decrypt.c.obj)
 .ARM.attributes
                0x0000000000000000       0x33 zephyr/libzephyr.a(aes_decrypt.c.obj)
 .text          0x0000000000000000        0x0 zephyr/libzephyr.a(aes_encrypt.c.obj)
 .data          0x0000000000000000        0x0 zephyr/libzephyr.a(aes_encrypt.c.obj)
 .bss           0x0000000000000000        0x0 zephyr/libzephyr.a(aes_encrypt.c.obj)
 .text          0x0000000000000000        0x0 zephyr/libzephyr.a(cmac_mode.c.obj)
 .data          0x0000000000000000        0x0 zephyr/libzephyr.a(cmac_mode.c.obj)
 .bss           0x0000000000000000        0x0 zephyr/libzephyr.a(cmac_mode.c.obj)
 .rodata.gf_wrap
                0x0000000000000000        0x1 zephyr/libzephyr.a(cmac_mode.c.obj)
 .text          0x0000000000000000        0x0 zephyr/libzephyr.a(sha256.c.obj)
 .data          0x0000000000000000        0x0 zephyr/libzephyr.a(sha256.c.obj)
 .bss           0x0000000000000000        0x0 zephyr/libzephyr.a(sha256.c.obj)
 .text          0x0000000000000000        0x0 zephyr/libzephyr.a(hmac.c.obj)
 .data          0x0000000000000000        0x0 zephyr/libzephyr.a(hmac.c.obj)
 .bss           0x0000000000000000        0x0 zephyr/libzephyr.a(hmac.c.obj)
 .text          0x0000000000000000        0x0 zephyr/libzephyr.a(hmac_prng.c.obj)
 .data          0x0000000000000000        0x0 zephyr/libzephyr.a(hmac_prng.c.obj)
 .bss           0x0000000000000000        0x0 zephyr/libzephyr.a(hmac_prng.c.obj)
 .text          0x0000000000000000        0x0 zephyr/libzephyr.a(stm32f4xx_hal.c.obj)
 .data          0x0000000000000000        0x0 zephyr/libzephyr.a(stm32f4xx_hal.c.obj)
 .bss           0x0000000000000000        0x0 zephyr/libzephyr.a(stm32f4xx_hal.c.obj)
 .text.HAL_MspInit
                0x0000000000000000        0x2 zephyr/libzephyr.a(stm32f4xx_hal.c.obj)
 .text.HAL_MspDeInit
                0x0000000000000000        0x2 zephyr/libzephyr.a(stm32f4xx_hal.c.obj)
 .text.HAL_DeInit
                0x0000000000000000       0x2c zephyr/libzephyr.a(stm32f4xx_hal.c.obj)
 .text.HAL_InitTick
                0x0000000000000000       0x28 zephyr/libzephyr.a(stm32f4xx_hal.c.obj)
 .text.HAL_Init
                0x0000000000000000       0x34 zephyr/libzephyr.a(stm32f4xx_hal.c.obj)
 .text.HAL_IncTick
                0x0000000000000000       0x10 zephyr/libzephyr.a(stm32f4xx_hal.c.obj)
 .text.HAL_GetTick
                0x0000000000000000        0xc zephyr/libzephyr.a(stm32f4xx_hal.c.obj)
 .text.HAL_Delay
                0x0000000000000000       0x20 zephyr/libzephyr.a(stm32f4xx_hal.c.obj)
 .text.HAL_SuspendTick
                0x0000000000000000       0x10 zephyr/libzephyr.a(stm32f4xx_hal.c.obj)
 .text.HAL_ResumeTick
                0x0000000000000000       0x10 zephyr/libzephyr.a(stm32f4xx_hal.c.obj)
 .text.HAL_GetHalVersion
                0x0000000000000000        0x8 zephyr/libzephyr.a(stm32f4xx_hal.c.obj)
 .text.HAL_GetREVID
                0x0000000000000000        0xc zephyr/libzephyr.a(stm32f4xx_hal.c.obj)
 .text.HAL_GetDEVID
                0x0000000000000000       0x10 zephyr/libzephyr.a(stm32f4xx_hal.c.obj)
 .text.HAL_DBGMCU_EnableDBGSleepMode
                0x0000000000000000       0x10 zephyr/libzephyr.a(stm32f4xx_hal.c.obj)
 .text.HAL_DBGMCU_DisableDBGSleepMode
                0x0000000000000000       0x10 zephyr/libzephyr.a(stm32f4xx_hal.c.obj)
 .text.HAL_DBGMCU_EnableDBGStopMode
                0x0000000000000000       0x10 zephyr/libzephyr.a(stm32f4xx_hal.c.obj)
 .text.HAL_DBGMCU_DisableDBGStopMode
                0x0000000000000000       0x10 zephyr/libzephyr.a(stm32f4xx_hal.c.obj)
 .text.HAL_DBGMCU_EnableDBGStandbyMode
                0x0000000000000000       0x10 zephyr/libzephyr.a(stm32f4xx_hal.c.obj)
 .text.HAL_DBGMCU_DisableDBGStandbyMode
                0x0000000000000000       0x10 zephyr/libzephyr.a(stm32f4xx_hal.c.obj)
 .text.HAL_EnableCompensationCell
                0x0000000000000000       0x18 zephyr/libzephyr.a(stm32f4xx_hal.c.obj)
 .text.HAL_DisableCompensationCell
                0x0000000000000000       0x1c zephyr/libzephyr.a(stm32f4xx_hal.c.obj)
 .text.HAL_GetUID
                0x0000000000000000       0x20 zephyr/libzephyr.a(stm32f4xx_hal.c.obj)
 .debug_info    0x0000000000000000      0x8cc zephyr/libzephyr.a(stm32f4xx_hal.c.obj)
 .debug_abbrev  0x0000000000000000      0x29c zephyr/libzephyr.a(stm32f4xx_hal.c.obj)
 .debug_loc     0x0000000000000000       0x91 zephyr/libzephyr.a(stm32f4xx_hal.c.obj)
 .debug_aranges
                0x0000000000000000       0xc0 zephyr/libzephyr.a(stm32f4xx_hal.c.obj)
 .debug_ranges  0x0000000000000000       0xb0 zephyr/libzephyr.a(stm32f4xx_hal.c.obj)
 .debug_line    0x0000000000000000      0x37d zephyr/libzephyr.a(stm32f4xx_hal.c.obj)
 .debug_str     0x0000000000000000      0x991 zephyr/libzephyr.a(stm32f4xx_hal.c.obj)
 .comment       0x0000000000000000       0x12 zephyr/libzephyr.a(stm32f4xx_hal.c.obj)
 .debug_frame   0x0000000000000000      0x194 zephyr/libzephyr.a(stm32f4xx_hal.c.obj)
 .ARM.attributes
                0x0000000000000000       0x33 zephyr/libzephyr.a(stm32f4xx_hal.c.obj)
 COMMON         0x0000000000000000        0x4 zephyr/libzephyr.a(stm32f4xx_hal.c.obj)
 .text          0x0000000000000000        0x0 zephyr/libzephyr.a(stm32f4xx_hal_rcc.c.obj)
 .data          0x0000000000000000        0x0 zephyr/libzephyr.a(stm32f4xx_hal_rcc.c.obj)
 .bss           0x0000000000000000        0x0 zephyr/libzephyr.a(stm32f4xx_hal_rcc.c.obj)
 .text.HAL_RCC_DeInit
                0x0000000000000000        0x2 zephyr/libzephyr.a(stm32f4xx_hal_rcc.c.obj)
 .text.HAL_RCC_OscConfig
                0x0000000000000000      0x328 zephyr/libzephyr.a(stm32f4xx_hal_rcc.c.obj)
 .text.HAL_RCC_MCOConfig
                0x0000000000000000       0x98 zephyr/libzephyr.a(stm32f4xx_hal_rcc.c.obj)
 .text.HAL_RCC_EnableCSS
                0x0000000000000000        0xc zephyr/libzephyr.a(stm32f4xx_hal_rcc.c.obj)
 .text.HAL_RCC_DisableCSS
                0x0000000000000000        0xc zephyr/libzephyr.a(stm32f4xx_hal_rcc.c.obj)
 .text.HAL_RCC_GetSysClockFreq
                0x0000000000000000       0x74 zephyr/libzephyr.a(stm32f4xx_hal_rcc.c.obj)
 .text.HAL_RCC_ClockConfig
                0x0000000000000000      0x16c zephyr/libzephyr.a(stm32f4xx_hal_rcc.c.obj)
 .text.HAL_RCC_GetHCLKFreq
                0x0000000000000000        0xc zephyr/libzephyr.a(stm32f4xx_hal_rcc.c.obj)
 .text.HAL_RCC_GetPCLK1Freq
                0x0000000000000000       0x30 zephyr/libzephyr.a(stm32f4xx_hal_rcc.c.obj)
 .text.HAL_RCC_GetPCLK2Freq
                0x0000000000000000       0x30 zephyr/libzephyr.a(stm32f4xx_hal_rcc.c.obj)
 .text.HAL_RCC_GetOscConfig
                0x0000000000000000       0xd0 zephyr/libzephyr.a(stm32f4xx_hal_rcc.c.obj)
 .text.HAL_RCC_GetClockConfig
                0x0000000000000000       0x3c zephyr/libzephyr.a(stm32f4xx_hal_rcc.c.obj)
 .text.HAL_RCC_CSSCallback
                0x0000000000000000        0x2 zephyr/libzephyr.a(stm32f4xx_hal_rcc.c.obj)
 .text.HAL_RCC_NMI_IRQHandler
                0x0000000000000000       0x20 zephyr/libzephyr.a(stm32f4xx_hal_rcc.c.obj)
 .debug_info    0x0000000000000000      0xc8e zephyr/libzephyr.a(stm32f4xx_hal_rcc.c.obj)
 .debug_abbrev  0x0000000000000000      0x31c zephyr/libzephyr.a(stm32f4xx_hal_rcc.c.obj)
 .debug_loc     0x0000000000000000      0x48f zephyr/libzephyr.a(stm32f4xx_hal_rcc.c.obj)
 .debug_aranges
                0x0000000000000000       0x80 zephyr/libzephyr.a(stm32f4xx_hal_rcc.c.obj)
 .debug_ranges  0x0000000000000000      0x168 zephyr/libzephyr.a(stm32f4xx_hal_rcc.c.obj)
 .debug_line    0x0000000000000000      0x58a zephyr/libzephyr.a(stm32f4xx_hal_rcc.c.obj)
 .debug_str     0x0000000000000000      0x6f1 zephyr/libzephyr.a(stm32f4xx_hal_rcc.c.obj)
 .comment       0x0000000000000000       0x12 zephyr/libzephyr.a(stm32f4xx_hal_rcc.c.obj)
 .debug_frame   0x0000000000000000      0x140 zephyr/libzephyr.a(stm32f4xx_hal_rcc.c.obj)
 .ARM.attributes
                0x0000000000000000       0x33 zephyr/libzephyr.a(stm32f4xx_hal_rcc.c.obj)
 .text          0x0000000000000000        0x0 zephyr/libzephyr.a(stm32f4xx_ll_utils.c.obj)
 .data          0x0000000000000000        0x0 zephyr/libzephyr.a(stm32f4xx_ll_utils.c.obj)
 .bss           0x0000000000000000        0x0 zephyr/libzephyr.a(stm32f4xx_ll_utils.c.obj)
 .text.LL_Init1msTick
                0x0000000000000000       0x1c zephyr/libzephyr.a(stm32f4xx_ll_utils.c.obj)
 .text.LL_mDelay
                0x0000000000000000       0x28 zephyr/libzephyr.a(stm32f4xx_ll_utils.c.obj)
 .text.LL_SetSystemCoreClock
                0x0000000000000000        0xc zephyr/libzephyr.a(stm32f4xx_ll_utils.c.obj)
 .text.LL_PLL_ConfigSystemClock_HSI
                0x0000000000000000       0x78 zephyr/libzephyr.a(stm32f4xx_ll_utils.c.obj)
 .text          0x0000000000000000        0x0 zephyr/libzephyr.a(stm32f4xx_ll_i2c.c.obj)
 .data          0x0000000000000000        0x0 zephyr/libzephyr.a(stm32f4xx_ll_i2c.c.obj)
 .bss           0x0000000000000000        0x0 zephyr/libzephyr.a(stm32f4xx_ll_i2c.c.obj)
 .text.LL_I2C_DeInit
                0x0000000000000000       0x64 zephyr/libzephyr.a(stm32f4xx_ll_i2c.c.obj)
 .text.LL_I2C_Init
                0x0000000000000000       0xec zephyr/libzephyr.a(stm32f4xx_ll_i2c.c.obj)
 .text.LL_I2C_StructInit
                0x0000000000000000       0x1c zephyr/libzephyr.a(stm32f4xx_ll_i2c.c.obj)
 .debug_info    0x0000000000000000      0x849 zephyr/libzephyr.a(stm32f4xx_ll_i2c.c.obj)
 .debug_abbrev  0x0000000000000000      0x1fd zephyr/libzephyr.a(stm32f4xx_ll_i2c.c.obj)
 .debug_loc     0x0000000000000000      0x3b0 zephyr/libzephyr.a(stm32f4xx_ll_i2c.c.obj)
 .debug_aranges
                0x0000000000000000       0x30 zephyr/libzephyr.a(stm32f4xx_ll_i2c.c.obj)
 .debug_ranges  0x0000000000000000       0xf0 zephyr/libzephyr.a(stm32f4xx_ll_i2c.c.obj)
 .debug_line    0x0000000000000000      0x2e6 zephyr/libzephyr.a(stm32f4xx_ll_i2c.c.obj)
 .debug_str     0x0000000000000000      0x58b zephyr/libzephyr.a(stm32f4xx_ll_i2c.c.obj)
 .comment       0x0000000000000000       0x12 zephyr/libzephyr.a(stm32f4xx_ll_i2c.c.obj)
 .debug_frame   0x0000000000000000       0x58 zephyr/libzephyr.a(stm32f4xx_ll_i2c.c.obj)
 .ARM.attributes
                0x0000000000000000       0x33 zephyr/libzephyr.a(stm32f4xx_ll_i2c.c.obj)
 .text          0x0000000000000000        0x0 zephyr/libzephyr.a(stm32f4xx_ll_spi.c.obj)
 .data          0x0000000000000000        0x0 zephyr/libzephyr.a(stm32f4xx_ll_spi.c.obj)
 .bss           0x0000000000000000        0x0 zephyr/libzephyr.a(stm32f4xx_ll_spi.c.obj)
 .text.LL_SPI_DeInit
                0x0000000000000000       0x84 zephyr/libzephyr.a(stm32f4xx_ll_spi.c.obj)
 .text.LL_SPI_Init
                0x0000000000000000       0x60 zephyr/libzephyr.a(stm32f4xx_ll_spi.c.obj)
 .text.LL_SPI_StructInit
                0x0000000000000000       0x1a zephyr/libzephyr.a(stm32f4xx_ll_spi.c.obj)
 .text.LL_I2S_DeInit
                0x0000000000000000        0x4 zephyr/libzephyr.a(stm32f4xx_ll_spi.c.obj)
 .text.LL_I2S_Init
                0x0000000000000000       0x94 zephyr/libzephyr.a(stm32f4xx_ll_spi.c.obj)
 .text.LL_I2S_StructInit
                0x0000000000000000       0x12 zephyr/libzephyr.a(stm32f4xx_ll_spi.c.obj)
 .text.LL_I2S_ConfigPrescaler
                0x0000000000000000       0x14 zephyr/libzephyr.a(stm32f4xx_ll_spi.c.obj)
 .text.LL_I2S_InitFullDuplex
                0x0000000000000000       0x44 zephyr/libzephyr.a(stm32f4xx_ll_spi.c.obj)
 .debug_info    0x0000000000000000      0x929 zephyr/libzephyr.a(stm32f4xx_ll_spi.c.obj)
 .debug_abbrev  0x0000000000000000      0x2da zephyr/libzephyr.a(stm32f4xx_ll_spi.c.obj)
 .debug_loc     0x0000000000000000      0x459 zephyr/libzephyr.a(stm32f4xx_ll_spi.c.obj)
 .debug_aranges
                0x0000000000000000       0x58 zephyr/libzephyr.a(stm32f4xx_ll_spi.c.obj)
 .debug_ranges  0x0000000000000000       0xa0 zephyr/libzephyr.a(stm32f4xx_ll_spi.c.obj)
 .debug_line    0x0000000000000000      0x35d zephyr/libzephyr.a(stm32f4xx_ll_spi.c.obj)
 .debug_str     0x0000000000000000      0x5f6 zephyr/libzephyr.a(stm32f4xx_ll_spi.c.obj)
 .comment       0x0000000000000000       0x12 zephyr/libzephyr.a(stm32f4xx_ll_spi.c.obj)
 .debug_frame   0x0000000000000000       0xb4 zephyr/libzephyr.a(stm32f4xx_ll_spi.c.obj)
 .ARM.attributes
                0x0000000000000000       0x33 zephyr/libzephyr.a(stm32f4xx_ll_spi.c.obj)
 .text          0x0000000000000000        0x0 zephyr/libzephyr.a(system_stm32f4xx.c.obj)
 .data          0x0000000000000000        0x0 zephyr/libzephyr.a(system_stm32f4xx.c.obj)
 .bss           0x0000000000000000        0x0 zephyr/libzephyr.a(system_stm32f4xx.c.obj)
 .text.SystemInit
                0x0000000000000000       0x40 zephyr/libzephyr.a(system_stm32f4xx.c.obj)
 .text.SystemCoreClockUpdate
                0x0000000000000000       0x74 zephyr/libzephyr.a(system_stm32f4xx.c.obj)
 .rodata.APBPrescTable
                0x0000000000000000        0x8 zephyr/libzephyr.a(system_stm32f4xx.c.obj)
 .text          0x0000000000000000        0x0 zephyr/libzephyr.a(isr_tables.c.obj)
 .data          0x0000000000000000        0x0 zephyr/libzephyr.a(isr_tables.c.obj)
 .bss           0x0000000000000000        0x0 zephyr/libzephyr.a(isr_tables.c.obj)
 .text.isr_tables_syms
                0x0000000000000000        0x2 zephyr/libzephyr.a(isr_tables.c.obj)
 .text          0x0000000000000000        0x0 zephyr/libzephyr.a(soc.c.obj)
 .data          0x0000000000000000        0x0 zephyr/libzephyr.a(soc.c.obj)
 .bss           0x0000000000000000        0x0 zephyr/libzephyr.a(soc.c.obj)
 .text.HAL_GetTick
                0x0000000000000000        0x4 zephyr/libzephyr.a(soc.c.obj)
 .text          0x0000000000000000        0x0 zephyr/libzephyr.a(soc_gpio.c.obj)
 .data          0x0000000000000000        0x0 zephyr/libzephyr.a(soc_gpio.c.obj)
 .bss           0x0000000000000000        0x0 zephyr/libzephyr.a(soc_gpio.c.obj)
 .text          0x0000000000000000        0x0 zephyr/libzephyr.a(arm_mpu_regions.c.obj)
 .data          0x0000000000000000        0x0 zephyr/libzephyr.a(arm_mpu_regions.c.obj)
 .bss           0x0000000000000000        0x0 zephyr/libzephyr.a(arm_mpu_regions.c.obj)
 .text          0x0000000000000000        0x0 zephyr/libzephyr.a(exc_exit.S.obj)
 .data          0x0000000000000000        0x0 zephyr/libzephyr.a(exc_exit.S.obj)
 .bss           0x0000000000000000        0x0 zephyr/libzephyr.a(exc_exit.S.obj)
 .text          0x0000000000000000        0x0 zephyr/libzephyr.a(irq_init.c.obj)
 .data          0x0000000000000000        0x0 zephyr/libzephyr.a(irq_init.c.obj)
 .bss           0x0000000000000000        0x0 zephyr/libzephyr.a(irq_init.c.obj)
 .text          0x0000000000000000        0x0 zephyr/libzephyr.a(swap.S.obj)
 .data          0x0000000000000000        0x0 zephyr/libzephyr.a(swap.S.obj)
 .bss           0x0000000000000000        0x0 zephyr/libzephyr.a(swap.S.obj)
 .text          0x0000000000000000        0x0 zephyr/libzephyr.a(fault.c.obj)
 .data          0x0000000000000000        0x0 zephyr/libzephyr.a(fault.c.obj)
 .bss           0x0000000000000000        0x0 zephyr/libzephyr.a(fault.c.obj)
 .text          0x0000000000000000        0x0 zephyr/libzephyr.a(irq_manage.c.obj)
 .data          0x0000000000000000        0x0 zephyr/libzephyr.a(irq_manage.c.obj)
 .bss           0x0000000000000000        0x0 zephyr/libzephyr.a(irq_manage.c.obj)
 .text._arch_irq_disable
                0x0000000000000000       0x1c zephyr/libzephyr.a(irq_manage.c.obj)
 .text._arch_irq_is_enabled
                0x0000000000000000       0x1c zephyr/libzephyr.a(irq_manage.c.obj)
 .text          0x0000000000000000        0x0 zephyr/libzephyr.a(thread.c.obj)
 .data          0x0000000000000000        0x0 zephyr/libzephyr.a(thread.c.obj)
 .bss           0x0000000000000000        0x0 zephyr/libzephyr.a(thread.c.obj)
 .text          0x0000000000000000        0x0 zephyr/libzephyr.a(cpu_idle.S.obj)
 .data          0x0000000000000000        0x0 zephyr/libzephyr.a(cpu_idle.S.obj)
 .bss           0x0000000000000000        0x0 zephyr/libzephyr.a(cpu_idle.S.obj)
 .text.k_cpu_atomic_idle
                0x0000000000000000       0x14 zephyr/libzephyr.a(cpu_idle.S.obj)
 .text          0x0000000000000000        0x0 zephyr/libzephyr.a(fault_s.S.obj)
 .data          0x0000000000000000        0x0 zephyr/libzephyr.a(fault_s.S.obj)
 .bss           0x0000000000000000        0x0 zephyr/libzephyr.a(fault_s.S.obj)
 .text          0x0000000000000000        0x0 zephyr/libzephyr.a(fatal.c.obj)
 .data          0x0000000000000000        0x0 zephyr/libzephyr.a(fatal.c.obj)
 .bss           0x0000000000000000        0x0 zephyr/libzephyr.a(fatal.c.obj)
 .text          0x0000000000000000        0x0 zephyr/libzephyr.a(sys_fatal_error_handler.c.obj)
 .data          0x0000000000000000        0x0 zephyr/libzephyr.a(sys_fatal_error_handler.c.obj)
 .bss           0x0000000000000000        0x0 zephyr/libzephyr.a(sys_fatal_error_handler.c.obj)
 .text          0x0000000000000000        0x0 zephyr/libzephyr.a(thread_abort.c.obj)
 .data          0x0000000000000000        0x0 zephyr/libzephyr.a(thread_abort.c.obj)
 .bss           0x0000000000000000        0x0 zephyr/libzephyr.a(thread_abort.c.obj)
 .text          0x0000000000000000        0x0 zephyr/libzephyr.a(isr_wrapper.S.obj)
 .data          0x0000000000000000        0x0 zephyr/libzephyr.a(isr_wrapper.S.obj)
 .bss           0x0000000000000000        0x0 zephyr/libzephyr.a(isr_wrapper.S.obj)
 .text          0x0000000000000000        0x0 zephyr/libzephyr.a(vector_table.S.obj)
 .data          0x0000000000000000        0x0 zephyr/libzephyr.a(vector_table.S.obj)
 .bss           0x0000000000000000        0x0 zephyr/libzephyr.a(vector_table.S.obj)
 .text          0x0000000000000000        0x0 zephyr/libzephyr.a(reset.S.obj)
 .data          0x0000000000000000        0x0 zephyr/libzephyr.a(reset.S.obj)
 .bss           0x0000000000000000        0x0 zephyr/libzephyr.a(reset.S.obj)
 .text          0x0000000000000000        0x0 zephyr/libzephyr.a(nmi_on_reset.S.obj)
 .data          0x0000000000000000        0x0 zephyr/libzephyr.a(nmi_on_reset.S.obj)
 .bss           0x0000000000000000        0x0 zephyr/libzephyr.a(nmi_on_reset.S.obj)
 .text          0x0000000000000000        0x0 zephyr/libzephyr.a(prep_c.c.obj)
 .data          0x0000000000000000        0x0 zephyr/libzephyr.a(prep_c.c.obj)
 .bss           0x0000000000000000        0x0 zephyr/libzephyr.a(prep_c.c.obj)
 .text          0x0000000000000000        0x0 zephyr/libzephyr.a(scb.c.obj)
 .data          0x0000000000000000        0x0 zephyr/libzephyr.a(scb.c.obj)
 .bss           0x0000000000000000        0x0 zephyr/libzephyr.a(scb.c.obj)
 .text.sys_arch_reboot
                0x0000000000000000       0x24 zephyr/libzephyr.a(scb.c.obj)
 .debug_info    0x0000000000000000      0x7aa zephyr/libzephyr.a(scb.c.obj)
 .debug_abbrev  0x0000000000000000      0x1cf zephyr/libzephyr.a(scb.c.obj)
 .debug_aranges
                0x0000000000000000       0x20 zephyr/libzephyr.a(scb.c.obj)
 .debug_ranges  0x0000000000000000       0x10 zephyr/libzephyr.a(scb.c.obj)
 .debug_line    0x0000000000000000      0x252 zephyr/libzephyr.a(scb.c.obj)
 .debug_str     0x0000000000000000      0x578 zephyr/libzephyr.a(scb.c.obj)
 .comment       0x0000000000000000       0x12 zephyr/libzephyr.a(scb.c.obj)
 .debug_frame   0x0000000000000000       0x20 zephyr/libzephyr.a(scb.c.obj)
 .ARM.attributes
                0x0000000000000000       0x33 zephyr/libzephyr.a(scb.c.obj)
 .text          0x0000000000000000        0x0 zephyr/libzephyr.a(nmi.c.obj)
 .data          0x0000000000000000        0x0 zephyr/libzephyr.a(nmi.c.obj)
 .bss           0x0000000000000000        0x0 zephyr/libzephyr.a(nmi.c.obj)
 .text          0x0000000000000000        0x0 zephyr/libzephyr.a(exc_manage.c.obj)
 .data          0x0000000000000000        0x0 zephyr/libzephyr.a(exc_manage.c.obj)
 .bss           0x0000000000000000        0x0 zephyr/libzephyr.a(exc_manage.c.obj)
 .text.sys_exc_esf_dump
                0x0000000000000000       0x68 zephyr/libzephyr.a(exc_manage.c.obj)
 .rodata.sys_exc_esf_dump.str1.1
                0x0000000000000000       0x65 zephyr/libzephyr.a(exc_manage.c.obj)
 .debug_info    0x0000000000000000      0x6d2 zephyr/libzephyr.a(exc_manage.c.obj)
 .debug_abbrev  0x0000000000000000      0x1b9 zephyr/libzephyr.a(exc_manage.c.obj)
 .debug_loc     0x0000000000000000       0x2c zephyr/libzephyr.a(exc_manage.c.obj)
 .debug_aranges
                0x0000000000000000       0x20 zephyr/libzephyr.a(exc_manage.c.obj)
 .debug_ranges  0x0000000000000000       0x10 zephyr/libzephyr.a(exc_manage.c.obj)
 .debug_line    0x0000000000000000      0x1b6 zephyr/libzephyr.a(exc_manage.c.obj)
 .debug_str     0x0000000000000000      0x467 zephyr/libzephyr.a(exc_manage.c.obj)
 .comment       0x0000000000000000       0x12 zephyr/libzephyr.a(exc_manage.c.obj)
 .debug_frame   0x0000000000000000       0x2c zephyr/libzephyr.a(exc_manage.c.obj)
 .ARM.attributes
                0x0000000000000000       0x33 zephyr/libzephyr.a(exc_manage.c.obj)
 .text          0x0000000000000000        0x0 zephyr/libzephyr.a(arm_core_mpu.c.obj)
 .data          0x0000000000000000        0x0 zephyr/libzephyr.a(arm_core_mpu.c.obj)
 .bss           0x0000000000000000        0x0 zephyr/libzephyr.a(arm_core_mpu.c.obj)
 .debug_info    0x0000000000000000      0x6e4 zephyr/libzephyr.a(arm_core_mpu.c.obj)
 .debug_abbrev  0x0000000000000000      0x18d zephyr/libzephyr.a(arm_core_mpu.c.obj)
 .debug_aranges
                0x0000000000000000       0x18 zephyr/libzephyr.a(arm_core_mpu.c.obj)
 .debug_line    0x0000000000000000      0x2b5 zephyr/libzephyr.a(arm_core_mpu.c.obj)
 .debug_str     0x0000000000000000      0x5c7 zephyr/libzephyr.a(arm_core_mpu.c.obj)
 .comment       0x0000000000000000       0x12 zephyr/libzephyr.a(arm_core_mpu.c.obj)
 .ARM.attributes
                0x0000000000000000       0x33 zephyr/libzephyr.a(arm_core_mpu.c.obj)
 .text          0x0000000000000000        0x0 zephyr/libzephyr.a(arm_mpu.c.obj)
 .data          0x0000000000000000        0x0 zephyr/libzephyr.a(arm_mpu.c.obj)
 .bss           0x0000000000000000        0x0 zephyr/libzephyr.a(arm_mpu.c.obj)
 .text.arm_core_mpu_enable
                0x0000000000000000       0x1c zephyr/libzephyr.a(arm_mpu.c.obj)
 .text.arm_core_mpu_disable
                0x0000000000000000       0x1c zephyr/libzephyr.a(arm_mpu.c.obj)
 .text.arm_core_mpu_configure
                0x0000000000000000       0x68 zephyr/libzephyr.a(arm_mpu.c.obj)
 .text          0x0000000000000000        0x0 zephyr/libzephyr.a(uart_console.c.obj)
 .data          0x0000000000000000        0x0 zephyr/libzephyr.a(uart_console.c.obj)
 .bss           0x0000000000000000        0x0 zephyr/libzephyr.a(uart_console.c.obj)
 .text          0x0000000000000000        0x0 zephyr/libzephyr.a(exti_stm32.c.obj)
 .data          0x0000000000000000        0x0 zephyr/libzephyr.a(exti_stm32.c.obj)
 .bss           0x0000000000000000        0x0 zephyr/libzephyr.a(exti_stm32.c.obj)
 .text.stm32_exti_disable
                0x0000000000000000       0x18 zephyr/libzephyr.a(exti_stm32.c.obj)
 .text.stm32_exti_unset_callback
                0x0000000000000000       0x18 zephyr/libzephyr.a(exti_stm32.c.obj)
 .text          0x0000000000000000        0x0 zephyr/libzephyr.a(stm32_ll_clock.c.obj)
 .data          0x0000000000000000        0x0 zephyr/libzephyr.a(stm32_ll_clock.c.obj)
 .bss           0x0000000000000000        0x0 zephyr/libzephyr.a(stm32_ll_clock.c.obj)
 .text          0x0000000000000000        0x0 zephyr/libzephyr.a(stm32f4x_ll_clock.c.obj)
 .data          0x0000000000000000        0x0 zephyr/libzephyr.a(stm32f4x_ll_clock.c.obj)
 .bss           0x0000000000000000        0x0 zephyr/libzephyr.a(stm32f4x_ll_clock.c.obj)
 .text          0x0000000000000000        0x0 zephyr/libzephyr.a(flash_page_layout.c.obj)
 .data          0x0000000000000000        0x0 zephyr/libzephyr.a(flash_page_layout.c.obj)
 .bss           0x0000000000000000        0x0 zephyr/libzephyr.a(flash_page_layout.c.obj)
 .text._impl_flash_get_page_info_by_idx
                0x0000000000000000        0x8 zephyr/libzephyr.a(flash_page_layout.c.obj)
 .text._impl_flash_get_page_count
                0x0000000000000000       0x26 zephyr/libzephyr.a(flash_page_layout.c.obj)
 .text.flash_page_foreach
                0x0000000000000000       0x58 zephyr/libzephyr.a(flash_page_layout.c.obj)
 .text          0x0000000000000000        0x0 zephyr/libzephyr.a(flash_stm32.c.obj)
 .data          0x0000000000000000        0x0 zephyr/libzephyr.a(flash_stm32.c.obj)
 .bss           0x0000000000000000        0x0 zephyr/libzephyr.a(flash_stm32.c.obj)
 .text          0x0000000000000000        0x0 zephyr/libzephyr.a(flash_stm32f4x.c.obj)
 .data          0x0000000000000000        0x0 zephyr/libzephyr.a(flash_stm32f4x.c.obj)
 .bss           0x0000000000000000        0x0 zephyr/libzephyr.a(flash_stm32f4x.c.obj)
 .text          0x0000000000000000        0x0 zephyr/libzephyr.a(gpio_stm32.c.obj)
 .data          0x0000000000000000        0x0 zephyr/libzephyr.a(gpio_stm32.c.obj)
 .bss           0x0000000000000000        0x0 zephyr/libzephyr.a(gpio_stm32.c.obj)
 .text          0x0000000000000000        0x0 zephyr/libzephyr.a(i2c_ll_stm32_v1.c.obj)
 .data          0x0000000000000000        0x0 zephyr/libzephyr.a(i2c_ll_stm32_v1.c.obj)
 .bss           0x0000000000000000        0x0 zephyr/libzephyr.a(i2c_ll_stm32_v1.c.obj)
 .text          0x0000000000000000        0x0 zephyr/libzephyr.a(i2c_ll_stm32.c.obj)
 .data          0x0000000000000000        0x0 zephyr/libzephyr.a(i2c_ll_stm32.c.obj)
 .bss           0x0000000000000000        0x0 zephyr/libzephyr.a(i2c_ll_stm32.c.obj)
 .text          0x0000000000000000        0x0 zephyr/libzephyr.a(pinmux_stm32.c.obj)
 .data          0x0000000000000000        0x0 zephyr/libzephyr.a(pinmux_stm32.c.obj)
 .bss           0x0000000000000000        0x0 zephyr/libzephyr.a(pinmux_stm32.c.obj)
 .text          0x0000000000000000        0x0 zephyr/libzephyr.a(uart_stm32.c.obj)
 .data          0x0000000000000000        0x0 zephyr/libzephyr.a(uart_stm32.c.obj)
 .bss           0x0000000000000000        0x0 zephyr/libzephyr.a(uart_stm32.c.obj)
 .text          0x0000000000000000        0x0 zephyr/libzephyr.a(spi_ll_stm32.c.obj)
 .data          0x0000000000000000        0x0 zephyr/libzephyr.a(spi_ll_stm32.c.obj)
 .bss           0x0000000000000000        0x0 zephyr/libzephyr.a(spi_ll_stm32.c.obj)
 .text          0x0000000000000000        0x0 zephyr/libzephyr.a(spi.c.obj)
 .data          0x0000000000000000        0x0 zephyr/libzephyr.a(spi.c.obj)
 .bss           0x0000000000000000        0x0 zephyr/libzephyr.a(spi.c.obj)
 .text          0x0000000000000000        0x0 zephyr/libzephyr.a(sys_clock_init.c.obj)
 .data          0x0000000000000000        0x0 zephyr/libzephyr.a(sys_clock_init.c.obj)
 .bss           0x0000000000000000        0x0 zephyr/libzephyr.a(sys_clock_init.c.obj)
 .text          0x0000000000000000        0x0 zephyr/libzephyr.a(cortex_m_systick.c.obj)
 .data          0x0000000000000000        0x0 zephyr/libzephyr.a(cortex_m_systick.c.obj)
 .bss           0x0000000000000000        0x0 zephyr/libzephyr.a(cortex_m_systick.c.obj)
 .text          0x0000000000000000        0x0 zephyr/boards/arm/96b_carbon/libboards__arm__96b_carbon.a(pinmux.c.obj)
 .data          0x0000000000000000        0x0 zephyr/boards/arm/96b_carbon/libboards__arm__96b_carbon.a(pinmux.c.obj)
 .bss           0x0000000000000000        0x0 zephyr/boards/arm/96b_carbon/libboards__arm__96b_carbon.a(pinmux.c.obj)
 .text          0x0000000000000000        0x0 zephyr/subsys/bluetooth/common/libsubsys__bluetooth__common.a(dummy.c.obj)
 .data          0x0000000000000000        0x0 zephyr/subsys/bluetooth/common/libsubsys__bluetooth__common.a(dummy.c.obj)
 .bss           0x0000000000000000        0x0 zephyr/subsys/bluetooth/common/libsubsys__bluetooth__common.a(dummy.c.obj)
 .debug_info    0x0000000000000000      0x4c4 zephyr/subsys/bluetooth/common/libsubsys__bluetooth__common.a(dummy.c.obj)
 .debug_abbrev  0x0000000000000000      0x147 zephyr/subsys/bluetooth/common/libsubsys__bluetooth__common.a(dummy.c.obj)
 .debug_aranges
                0x0000000000000000       0x18 zephyr/subsys/bluetooth/common/libsubsys__bluetooth__common.a(dummy.c.obj)
 .debug_line    0x0000000000000000      0x114 zephyr/subsys/bluetooth/common/libsubsys__bluetooth__common.a(dummy.c.obj)
 .debug_str     0x0000000000000000      0x437 zephyr/subsys/bluetooth/common/libsubsys__bluetooth__common.a(dummy.c.obj)
 .comment       0x0000000000000000       0x12 zephyr/subsys/bluetooth/common/libsubsys__bluetooth__common.a(dummy.c.obj)
 .ARM.attributes
                0x0000000000000000       0x33 zephyr/subsys/bluetooth/common/libsubsys__bluetooth__common.a(dummy.c.obj)
 .text          0x0000000000000000        0x0 zephyr/subsys/bluetooth/host/libsubsys__bluetooth__host.a(hci_ecc.c.obj)
 .data          0x0000000000000000        0x0 zephyr/subsys/bluetooth/host/libsubsys__bluetooth__host.a(hci_ecc.c.obj)
 .bss           0x0000000000000000        0x0 zephyr/subsys/bluetooth/host/libsubsys__bluetooth__host.a(hci_ecc.c.obj)
 .text          0x0000000000000000        0x0 zephyr/subsys/bluetooth/host/libsubsys__bluetooth__host.a(uuid.c.obj)
 .data          0x0000000000000000        0x0 zephyr/subsys/bluetooth/host/libsubsys__bluetooth__host.a(uuid.c.obj)
 .bss           0x0000000000000000        0x0 zephyr/subsys/bluetooth/host/libsubsys__bluetooth__host.a(uuid.c.obj)
 .text          0x0000000000000000        0x0 zephyr/subsys/bluetooth/host/libsubsys__bluetooth__host.a(hci_core.c.obj)
 .data          0x0000000000000000        0x0 zephyr/subsys/bluetooth/host/libsubsys__bluetooth__host.a(hci_core.c.obj)
 .bss           0x0000000000000000        0x0 zephyr/subsys/bluetooth/host/libsubsys__bluetooth__host.a(hci_core.c.obj)
 .text.bt_addr_le_create_nrpa
                0x0000000000000000       0x1c zephyr/subsys/bluetooth/host/libsubsys__bluetooth__host.a(hci_core.c.obj)
 .text.bt_storage_register
                0x0000000000000000        0xc zephyr/subsys/bluetooth/host/libsubsys__bluetooth__host.a(hci_core.c.obj)
 .text.bt_storage_clear
                0x0000000000000000       0x3c zephyr/subsys/bluetooth/host/libsubsys__bluetooth__host.a(hci_core.c.obj)
 .text.bt_hci_get_cmd_opcode
                0x0000000000000000        0xa zephyr/subsys/bluetooth/host/libsubsys__bluetooth__host.a(hci_core.c.obj)
 .text.bt_le_oob_get_local
                0x0000000000000000       0x10 zephyr/subsys/bluetooth/host/libsubsys__bluetooth__host.a(hci_core.c.obj)
 .text          0x0000000000000000        0x0 zephyr/subsys/bluetooth/host/libsubsys__bluetooth__host.a(crypto.c.obj)
 .data          0x0000000000000000        0x0 zephyr/subsys/bluetooth/host/libsubsys__bluetooth__host.a(crypto.c.obj)
 .bss           0x0000000000000000        0x0 zephyr/subsys/bluetooth/host/libsubsys__bluetooth__host.a(crypto.c.obj)
 .text.bt_encrypt_le
                0x0000000000000000       0x6c zephyr/subsys/bluetooth/host/libsubsys__bluetooth__host.a(crypto.c.obj)
 .text          0x0000000000000000        0x0 zephyr/subsys/bluetooth/host/libsubsys__bluetooth__host.a(conn.c.obj)
 .data          0x0000000000000000        0x0 zephyr/subsys/bluetooth/host/libsubsys__bluetooth__host.a(conn.c.obj)
 .bss           0x0000000000000000        0x0 zephyr/subsys/bluetooth/host/libsubsys__bluetooth__host.a(conn.c.obj)
 .text.bt_conn_get_dst
                0x0000000000000000        0x4 zephyr/subsys/bluetooth/host/libsubsys__bluetooth__host.a(conn.c.obj)
 .text.bt_conn_get_info
                0x0000000000000000       0x3c zephyr/subsys/bluetooth/host/libsubsys__bluetooth__host.a(conn.c.obj)
 .text.bt_conn_disconnect_all
                0x0000000000000000       0x28 zephyr/subsys/bluetooth/host/libsubsys__bluetooth__host.a(conn.c.obj)
 .text.bt_conn_create_slave_le
                0x0000000000000000        0x4 zephyr/subsys/bluetooth/host/libsubsys__bluetooth__host.a(conn.c.obj)
 .text          0x0000000000000000        0x0 zephyr/subsys/bluetooth/host/libsubsys__bluetooth__host.a(l2cap.c.obj)
 .data          0x0000000000000000        0x0 zephyr/subsys/bluetooth/host/libsubsys__bluetooth__host.a(l2cap.c.obj)
 .bss           0x0000000000000000        0x0 zephyr/subsys/bluetooth/host/libsubsys__bluetooth__host.a(l2cap.c.obj)
 .text.bt_l2cap_chan_add
                0x0000000000000000       0x1e zephyr/subsys/bluetooth/host/libsubsys__bluetooth__host.a(l2cap.c.obj)
 .text.bt_l2cap_encrypt_change
                0x0000000000000000       0x1e zephyr/subsys/bluetooth/host/libsubsys__bluetooth__host.a(l2cap.c.obj)
 .text          0x0000000000000000        0x0 zephyr/subsys/bluetooth/host/libsubsys__bluetooth__host.a(att.c.obj)
 .data          0x0000000000000000        0x0 zephyr/subsys/bluetooth/host/libsubsys__bluetooth__host.a(att.c.obj)
 .bss           0x0000000000000000        0x0 zephyr/subsys/bluetooth/host/libsubsys__bluetooth__host.a(att.c.obj)
 .text.bt_att_send
                0x0000000000000000       0x8c zephyr/subsys/bluetooth/host/libsubsys__bluetooth__host.a(att.c.obj)
 .text.bt_att_req_cancel
                0x0000000000000000       0x62 zephyr/subsys/bluetooth/host/libsubsys__bluetooth__host.a(att.c.obj)
 .text          0x0000000000000000        0x0 zephyr/subsys/bluetooth/host/libsubsys__bluetooth__host.a(gatt.c.obj)
 .data          0x0000000000000000        0x0 zephyr/subsys/bluetooth/host/libsubsys__bluetooth__host.a(gatt.c.obj)
 .bss           0x0000000000000000        0x0 zephyr/subsys/bluetooth/host/libsubsys__bluetooth__host.a(gatt.c.obj)
 .text.get_service_handles
                0x0000000000000000       0x44 zephyr/subsys/bluetooth/host/libsubsys__bluetooth__host.a(gatt.c.obj)
 .text.bt_gatt_attr_read_included
                0x0000000000000000       0x60 zephyr/subsys/bluetooth/host/libsubsys__bluetooth__host.a(gatt.c.obj)
 .text.bt_gatt_attr_read_cep
                0x0000000000000000       0x36 zephyr/subsys/bluetooth/host/libsubsys__bluetooth__host.a(gatt.c.obj)
 .text.bt_gatt_attr_read_cud
                0x0000000000000000       0x3c zephyr/subsys/bluetooth/host/libsubsys__bluetooth__host.a(gatt.c.obj)
 .text.bt_gatt_attr_read_cpf
                0x0000000000000000       0x2a zephyr/subsys/bluetooth/host/libsubsys__bluetooth__host.a(gatt.c.obj)
 .text.bt_gatt_indicate
                0x0000000000000000        0xc zephyr/subsys/bluetooth/host/libsubsys__bluetooth__host.a(gatt.c.obj)
 .text          0x0000000000000000        0x0 zephyr/subsys/bluetooth/host/libsubsys__bluetooth__host.a(smp_null.c.obj)
 .data          0x0000000000000000        0x0 zephyr/subsys/bluetooth/host/libsubsys__bluetooth__host.a(smp_null.c.obj)
 .bss           0x0000000000000000        0x0 zephyr/subsys/bluetooth/host/libsubsys__bluetooth__host.a(smp_null.c.obj)
 .text.bt_smp_sign
                0x0000000000000000        0x6 zephyr/subsys/bluetooth/host/libsubsys__bluetooth__host.a(smp_null.c.obj)
 .text          0x0000000000000000        0x0 zephyr/subsys/bluetooth/host/mesh/libsubsys__bluetooth__host__mesh.a(main.c.obj)
 .data          0x0000000000000000        0x0 zephyr/subsys/bluetooth/host/mesh/libsubsys__bluetooth__host__mesh.a(main.c.obj)
 .bss           0x0000000000000000        0x0 zephyr/subsys/bluetooth/host/mesh/libsubsys__bluetooth__host__mesh.a(main.c.obj)
 .text.bt_mesh_prov_disable
                0x0000000000000000       0x34 zephyr/subsys/bluetooth/host/mesh/libsubsys__bluetooth__host__mesh.a(main.c.obj)
 .text          0x0000000000000000        0x0 zephyr/subsys/bluetooth/host/mesh/libsubsys__bluetooth__host__mesh.a(adv.c.obj)
 .data          0x0000000000000000        0x0 zephyr/subsys/bluetooth/host/mesh/libsubsys__bluetooth__host__mesh.a(adv.c.obj)
 .bss           0x0000000000000000        0x0 zephyr/subsys/bluetooth/host/mesh/libsubsys__bluetooth__host__mesh.a(adv.c.obj)
 .text          0x0000000000000000        0x0 zephyr/subsys/bluetooth/host/mesh/libsubsys__bluetooth__host__mesh.a(beacon.c.obj)
 .data          0x0000000000000000        0x0 zephyr/subsys/bluetooth/host/mesh/libsubsys__bluetooth__host__mesh.a(beacon.c.obj)
 .bss           0x0000000000000000        0x0 zephyr/subsys/bluetooth/host/mesh/libsubsys__bluetooth__host__mesh.a(beacon.c.obj)
 .text          0x0000000000000000        0x0 zephyr/subsys/bluetooth/host/mesh/libsubsys__bluetooth__host__mesh.a(net.c.obj)
 .data          0x0000000000000000        0x0 zephyr/subsys/bluetooth/host/mesh/libsubsys__bluetooth__host__mesh.a(net.c.obj)
 .bss           0x0000000000000000        0x0 zephyr/subsys/bluetooth/host/mesh/libsubsys__bluetooth__host__mesh.a(net.c.obj)
 .text          0x0000000000000000        0x0 zephyr/subsys/bluetooth/host/mesh/libsubsys__bluetooth__host__mesh.a(transport.c.obj)
 .data          0x0000000000000000        0x0 zephyr/subsys/bluetooth/host/mesh/libsubsys__bluetooth__host__mesh.a(transport.c.obj)
 .bss           0x0000000000000000        0x0 zephyr/subsys/bluetooth/host/mesh/libsubsys__bluetooth__host__mesh.a(transport.c.obj)
 .text.bt_mesh_trans_resend
                0x0000000000000000       0x46 zephyr/subsys/bluetooth/host/mesh/libsubsys__bluetooth__host__mesh.a(transport.c.obj)
 .text.bt_mesh_rpl_clear
                0x0000000000000000       0x10 zephyr/subsys/bluetooth/host/mesh/libsubsys__bluetooth__host__mesh.a(transport.c.obj)
 .text          0x0000000000000000        0x0 zephyr/subsys/bluetooth/host/mesh/libsubsys__bluetooth__host__mesh.a(crypto.c.obj)
 .data          0x0000000000000000        0x0 zephyr/subsys/bluetooth/host/mesh/libsubsys__bluetooth__host__mesh.a(crypto.c.obj)
 .bss           0x0000000000000000        0x0 zephyr/subsys/bluetooth/host/mesh/libsubsys__bluetooth__host__mesh.a(crypto.c.obj)
 .text          0x0000000000000000        0x0 zephyr/subsys/bluetooth/host/mesh/libsubsys__bluetooth__host__mesh.a(access.c.obj)
 .data          0x0000000000000000        0x0 zephyr/subsys/bluetooth/host/mesh/libsubsys__bluetooth__host__mesh.a(access.c.obj)
 .bss           0x0000000000000000        0x0 zephyr/subsys/bluetooth/host/mesh/libsubsys__bluetooth__host__mesh.a(access.c.obj)
 .text          0x0000000000000000        0x0 zephyr/subsys/bluetooth/host/mesh/libsubsys__bluetooth__host__mesh.a(cfg_srv.c.obj)
 .data          0x0000000000000000        0x0 zephyr/subsys/bluetooth/host/mesh/libsubsys__bluetooth__host__mesh.a(cfg_srv.c.obj)
 .bss           0x0000000000000000        0x0 zephyr/subsys/bluetooth/host/mesh/libsubsys__bluetooth__host__mesh.a(cfg_srv.c.obj)
 .text          0x0000000000000000        0x0 zephyr/subsys/bluetooth/host/mesh/libsubsys__bluetooth__host__mesh.a(health_srv.c.obj)
 .data          0x0000000000000000        0x0 zephyr/subsys/bluetooth/host/mesh/libsubsys__bluetooth__host__mesh.a(health_srv.c.obj)
 .bss           0x0000000000000000        0x0 zephyr/subsys/bluetooth/host/mesh/libsubsys__bluetooth__host__mesh.a(health_srv.c.obj)
 .text.bt_mesh_fault_update
                0x0000000000000000       0x18 zephyr/subsys/bluetooth/host/mesh/libsubsys__bluetooth__host__mesh.a(health_srv.c.obj)
 .text          0x0000000000000000        0x0 zephyr/subsys/bluetooth/host/mesh/libsubsys__bluetooth__host__mesh.a(friend.c.obj)
 .data          0x0000000000000000        0x0 zephyr/subsys/bluetooth/host/mesh/libsubsys__bluetooth__host__mesh.a(friend.c.obj)
 .bss           0x0000000000000000        0x0 zephyr/subsys/bluetooth/host/mesh/libsubsys__bluetooth__host__mesh.a(friend.c.obj)
 .text          0x0000000000000000        0x0 zephyr/subsys/bluetooth/host/mesh/libsubsys__bluetooth__host__mesh.a(prov.c.obj)
 .data          0x0000000000000000        0x0 zephyr/subsys/bluetooth/host/mesh/libsubsys__bluetooth__host__mesh.a(prov.c.obj)
 .bss           0x0000000000000000        0x0 zephyr/subsys/bluetooth/host/mesh/libsubsys__bluetooth__host__mesh.a(prov.c.obj)
 .text.send_input_complete
                0x0000000000000000       0x2c zephyr/subsys/bluetooth/host/mesh/libsubsys__bluetooth__host__mesh.a(prov.c.obj)
 .text.bt_mesh_input_number
                0x0000000000000000       0x50 zephyr/subsys/bluetooth/host/mesh/libsubsys__bluetooth__host__mesh.a(prov.c.obj)
 .text.bt_mesh_input_string
                0x0000000000000000       0x48 zephyr/subsys/bluetooth/host/mesh/libsubsys__bluetooth__host__mesh.a(prov.c.obj)
 .text          0x0000000000000000        0x0 zephyr/subsys/bluetooth/host/mesh/libsubsys__bluetooth__host__mesh.a(proxy.c.obj)
 .data          0x0000000000000000        0x0 zephyr/subsys/bluetooth/host/mesh/libsubsys__bluetooth__host__mesh.a(proxy.c.obj)
 .bss           0x0000000000000000        0x0 zephyr/subsys/bluetooth/host/mesh/libsubsys__bluetooth__host__mesh.a(proxy.c.obj)
 .text.bt_mesh_proxy_identity_enable
                0x0000000000000000       0x64 zephyr/subsys/bluetooth/host/mesh/libsubsys__bluetooth__host__mesh.a(proxy.c.obj)
 .text          0x0000000000000000        0x0 zephyr/subsys/net/libsubsys__net.a(buf.c.obj)
 .data          0x0000000000000000        0x0 zephyr/subsys/net/libsubsys__net.a(buf.c.obj)
 .bss           0x0000000000000000        0x0 zephyr/subsys/net/libsubsys__net.a(buf.c.obj)
 .text.net_buf_reset
                0x0000000000000000        0xc zephyr/subsys/net/libsubsys__net.a(buf.c.obj)
 .text.net_buf_clone
                0x0000000000000000       0x38 zephyr/subsys/net/libsubsys__net.a(buf.c.obj)
 .text.net_buf_frag_last
                0x0000000000000000        0xa zephyr/subsys/net/libsubsys__net.a(buf.c.obj)
 .text.net_buf_frag_insert
                0x0000000000000000       0x16 zephyr/subsys/net/libsubsys__net.a(buf.c.obj)
 .text.net_buf_frag_add
                0x0000000000000000       0x20 zephyr/subsys/net/libsubsys__net.a(buf.c.obj)
 .text.net_buf_frag_del
                0x0000000000000000       0x18 zephyr/subsys/net/libsubsys__net.a(buf.c.obj)
 .text.net_buf_simple_add_le32
                0x0000000000000000       0x1e zephyr/subsys/net/libsubsys__net.a(buf.c.obj)
 .text.net_buf_simple_push_le16
                0x0000000000000000       0x22 zephyr/subsys/net/libsubsys__net.a(buf.c.obj)
 .text.net_buf_simple_pull_le32
                0x0000000000000000       0x10 zephyr/subsys/net/libsubsys__net.a(buf.c.obj)
 .text          0x0000000000000000        0x0 zephyr/kernel/libkernel.a(device.c.obj)
 .data          0x0000000000000000        0x0 zephyr/kernel/libkernel.a(device.c.obj)
 .bss           0x0000000000000000        0x0 zephyr/kernel/libkernel.a(device.c.obj)
 .text.device_busy_set
                0x0000000000000000        0x2 zephyr/kernel/libkernel.a(device.c.obj)
 .text.device_busy_clear
                0x0000000000000000        0x2 zephyr/kernel/libkernel.a(device.c.obj)
 .text          0x0000000000000000        0x0 zephyr/kernel/libkernel.a(errno.c.obj)
 .data          0x0000000000000000        0x0 zephyr/kernel/libkernel.a(errno.c.obj)
 .bss           0x0000000000000000        0x0 zephyr/kernel/libkernel.a(errno.c.obj)
 .text.__errno  0x0000000000000000        0xc zephyr/kernel/libkernel.a(errno.c.obj)
 .text          0x0000000000000000        0x0 zephyr/kernel/libkernel.a(init.c.obj)
 .data          0x0000000000000000        0x0 zephyr/kernel/libkernel.a(init.c.obj)
 .bss           0x0000000000000000        0x0 zephyr/kernel/libkernel.a(init.c.obj)
 .text.main     0x0000000000000000        0x2 zephyr/kernel/libkernel.a(init.c.obj)
 .rodata._main_thread
                0x0000000000000000        0x4 zephyr/kernel/libkernel.a(init.c.obj)
 .text          0x0000000000000000        0x0 zephyr/kernel/libkernel.a(queue.c.obj)
 .data          0x0000000000000000        0x0 zephyr/kernel/libkernel.a(queue.c.obj)
 .bss           0x0000000000000000        0x0 zephyr/kernel/libkernel.a(queue.c.obj)
 .text.k_queue_merge_slist
                0x0000000000000000       0x12 zephyr/kernel/libkernel.a(queue.c.obj)
 .text          0x0000000000000000        0x0 zephyr/kernel/libkernel.a(sched.c.obj)
 .data          0x0000000000000000        0x0 zephyr/kernel/libkernel.a(sched.c.obj)
 .bss           0x0000000000000000        0x0 zephyr/kernel/libkernel.a(sched.c.obj)
 .text.k_sched_lock
                0x0000000000000000       0x10 zephyr/kernel/libkernel.a(sched.c.obj)
 .text._impl_k_thread_priority_get
                0x0000000000000000        0x6 zephyr/kernel/libkernel.a(sched.c.obj)
 .text._impl_k_thread_priority_set
                0x0000000000000000       0x36 zephyr/kernel/libkernel.a(sched.c.obj)
 .text._impl_k_wakeup
                0x0000000000000000       0x6c zephyr/kernel/libkernel.a(sched.c.obj)
 .text.k_sched_time_slice_set
                0x0000000000000000       0x1c zephyr/kernel/libkernel.a(sched.c.obj)
 .text._impl_k_is_preempt_thread
                0x0000000000000000       0x34 zephyr/kernel/libkernel.a(sched.c.obj)
 .text          0x0000000000000000        0x0 zephyr/kernel/libkernel.a(sem.c.obj)
 .data          0x0000000000000000        0x0 zephyr/kernel/libkernel.a(sem.c.obj)
 .bss           0x0000000000000000        0x0 zephyr/kernel/libkernel.a(sem.c.obj)
 .text._sem_give_non_preemptible
                0x0000000000000000       0x2c zephyr/kernel/libkernel.a(sem.c.obj)
 .text          0x0000000000000000        0x0 zephyr/kernel/libkernel.a(sys_clock.c.obj)
 .data          0x0000000000000000        0x0 zephyr/kernel/libkernel.a(sys_clock.c.obj)
 .bss           0x0000000000000000        0x0 zephyr/kernel/libkernel.a(sys_clock.c.obj)
 .text._tick_get_32
                0x0000000000000000        0xc zephyr/kernel/libkernel.a(sys_clock.c.obj)
 .text.k_uptime_delta
                0x0000000000000000       0x18 zephyr/kernel/libkernel.a(sys_clock.c.obj)
 .text.k_uptime_delta_32
                0x0000000000000000        0x8 zephyr/kernel/libkernel.a(sys_clock.c.obj)
 .data.sys_clock_us_per_tick
                0x0000000000000000        0x4 zephyr/kernel/libkernel.a(sys_clock.c.obj)
 .text          0x0000000000000000        0x0 zephyr/kernel/libkernel.a(system_work_q.c.obj)
 .data          0x0000000000000000        0x0 zephyr/kernel/libkernel.a(system_work_q.c.obj)
 .bss           0x0000000000000000        0x0 zephyr/kernel/libkernel.a(system_work_q.c.obj)
 .text          0x0000000000000000        0x0 zephyr/kernel/libkernel.a(thread.c.obj)
 .data          0x0000000000000000        0x0 zephyr/kernel/libkernel.a(thread.c.obj)
 .bss           0x0000000000000000        0x0 zephyr/kernel/libkernel.a(thread.c.obj)
 .text._thread_essential_set
                0x0000000000000000       0x14 zephyr/kernel/libkernel.a(thread.c.obj)
 .text._thread_essential_clear
                0x0000000000000000       0x14 zephyr/kernel/libkernel.a(thread.c.obj)
 .text._impl_k_thread_cancel
                0x0000000000000000       0x32 zephyr/kernel/libkernel.a(thread.c.obj)
 .text._k_thread_single_suspend
                0x0000000000000000       0x1a zephyr/kernel/libkernel.a(thread.c.obj)
 .text._impl_k_thread_suspend
                0x0000000000000000       0x34 zephyr/kernel/libkernel.a(thread.c.obj)
 .text._k_thread_single_resume
                0x0000000000000000       0x1e zephyr/kernel/libkernel.a(thread.c.obj)
 .text._impl_k_thread_resume
                0x0000000000000000       0x1c zephyr/kernel/libkernel.a(thread.c.obj)
 .text.k_thread_access_grant
                0x0000000000000000        0x6 zephyr/kernel/libkernel.a(thread.c.obj)
 .text.k_thread_user_mode_enter
                0x0000000000000000       0x24 zephyr/kernel/libkernel.a(thread.c.obj)
 .text          0x0000000000000000        0x0 zephyr/kernel/libkernel.a(work_q.c.obj)
 .data          0x0000000000000000        0x0 zephyr/kernel/libkernel.a(work_q.c.obj)
 .bss           0x0000000000000000        0x0 zephyr/kernel/libkernel.a(work_q.c.obj)
 .text          0x0000000000000000        0x0 zephyr/kernel/libkernel.a(timer.c.obj)
 .data          0x0000000000000000        0x0 zephyr/kernel/libkernel.a(timer.c.obj)
 .bss           0x0000000000000000        0x0 zephyr/kernel/libkernel.a(timer.c.obj)
 .text._ready_thread
                0x0000000000000000       0x1a zephyr/kernel/libkernel.a(timer.c.obj)
 .text._unpend_thread
                0x0000000000000000       0x14 zephyr/kernel/libkernel.a(timer.c.obj)
 .text._abort_timeout
                0x0000000000000000       0x34 zephyr/kernel/libkernel.a(timer.c.obj)
 .text._add_timeout.constprop.9
                0x0000000000000000       0x78 zephyr/kernel/libkernel.a(timer.c.obj)
 .text._timer_expiration_handler
                0x0000000000000000       0x5e zephyr/kernel/libkernel.a(timer.c.obj)
 .text.k_timer_init
                0x0000000000000000       0x28 zephyr/kernel/libkernel.a(timer.c.obj)
 .text._impl_k_timer_start
                0x0000000000000000       0x3a zephyr/kernel/libkernel.a(timer.c.obj)
 .text._impl_k_timer_stop
                0x0000000000000000       0x98 zephyr/kernel/libkernel.a(timer.c.obj)
 .text._impl_k_timer_status_get
                0x0000000000000000       0x1a zephyr/kernel/libkernel.a(timer.c.obj)
 .text._impl_k_timer_status_sync
                0x0000000000000000       0x48 zephyr/kernel/libkernel.a(timer.c.obj)
 .text          0x0000000000000000        0x0 zephyr/kernel/libkernel.a(poll.c.obj)
 .data          0x0000000000000000        0x0 zephyr/kernel/libkernel.a(poll.c.obj)
 .bss           0x0000000000000000        0x0 zephyr/kernel/libkernel.a(poll.c.obj)
 .text.k_poll_signal_init
                0x0000000000000000        0xa zephyr/kernel/libkernel.a(poll.c.obj)
 .text          0x0000000000000000        0x0 zephyr/kernel/libkernel.a(idle.c.obj)
 .data          0x0000000000000000        0x0 zephyr/kernel/libkernel.a(idle.c.obj)
 .bss           0x0000000000000000        0x0 zephyr/kernel/libkernel.a(idle.c.obj)
 .text._sys_power_save_idle_exit
                0x0000000000000000        0x2 zephyr/kernel/libkernel.a(idle.c.obj)
 .text          0x0000000000000000        0x0 zephyr/CMakeFiles/offsets.dir/arch/arm/core/offsets/offsets.c.obj
 .data          0x0000000000000000        0x0 zephyr/CMakeFiles/offsets.dir/arch/arm/core/offsets/offsets.c.obj
 .bss           0x0000000000000000        0x0 zephyr/CMakeFiles/offsets.dir/arch/arm/core/offsets/offsets.c.obj
 .text          0x0000000000000000       0x18 /opt/zephyr-sdk/sysroots/armv5-zephyr-eabi/usr/lib/arm-zephyr-eabi/6.2.0/armv7e-m/libgcc.a(_lshrdi3.o)
 .data          0x0000000000000000        0x0 /opt/zephyr-sdk/sysroots/armv5-zephyr-eabi/usr/lib/arm-zephyr-eabi/6.2.0/armv7e-m/libgcc.a(_lshrdi3.o)
 .bss           0x0000000000000000        0x0 /opt/zephyr-sdk/sysroots/armv5-zephyr-eabi/usr/lib/arm-zephyr-eabi/6.2.0/armv7e-m/libgcc.a(_lshrdi3.o)
 .debug_line    0x0000000000000000       0x94 /opt/zephyr-sdk/sysroots/armv5-zephyr-eabi/usr/lib/arm-zephyr-eabi/6.2.0/armv7e-m/libgcc.a(_lshrdi3.o)
 .debug_info    0x0000000000000000       0xe0 /opt/zephyr-sdk/sysroots/armv5-zephyr-eabi/usr/lib/arm-zephyr-eabi/6.2.0/armv7e-m/libgcc.a(_lshrdi3.o)
 .debug_abbrev  0x0000000000000000       0x14 /opt/zephyr-sdk/sysroots/armv5-zephyr-eabi/usr/lib/arm-zephyr-eabi/6.2.0/armv7e-m/libgcc.a(_lshrdi3.o)
 .debug_aranges
                0x0000000000000000       0x20 /opt/zephyr-sdk/sysroots/armv5-zephyr-eabi/usr/lib/arm-zephyr-eabi/6.2.0/armv7e-m/libgcc.a(_lshrdi3.o)
 .ARM.attributes
                0x0000000000000000       0x1e /opt/zephyr-sdk/sysroots/armv5-zephyr-eabi/usr/lib/arm-zephyr-eabi/6.2.0/armv7e-m/libgcc.a(_lshrdi3.o)
 .data          0x0000000000000000        0x0 /opt/zephyr-sdk/sysroots/armv5-zephyr-eabi/usr/lib/arm-zephyr-eabi/6.2.0/armv7e-m/libgcc.a(_ashldi3.o)
 .bss           0x0000000000000000        0x0 /opt/zephyr-sdk/sysroots/armv5-zephyr-eabi/usr/lib/arm-zephyr-eabi/6.2.0/armv7e-m/libgcc.a(_ashldi3.o)
 .data          0x0000000000000000        0x0 /opt/zephyr-sdk/sysroots/armv5-zephyr-eabi/usr/lib/arm-zephyr-eabi/6.2.0/armv7e-m/libgcc.a(_aeabi_ldivmod.o)
 .bss           0x0000000000000000        0x0 /opt/zephyr-sdk/sysroots/armv5-zephyr-eabi/usr/lib/arm-zephyr-eabi/6.2.0/armv7e-m/libgcc.a(_aeabi_ldivmod.o)
 .data          0x0000000000000000        0x0 /opt/zephyr-sdk/sysroots/armv5-zephyr-eabi/usr/lib/arm-zephyr-eabi/6.2.0/armv7e-m/libgcc.a(_aeabi_uldivmod.o)
 .bss           0x0000000000000000        0x0 /opt/zephyr-sdk/sysroots/armv5-zephyr-eabi/usr/lib/arm-zephyr-eabi/6.2.0/armv7e-m/libgcc.a(_aeabi_uldivmod.o)
 .data          0x0000000000000000        0x0 /opt/zephyr-sdk/sysroots/armv5-zephyr-eabi/usr/lib/arm-zephyr-eabi/6.2.0/armv7e-m/libgcc.a(_popcountsi2.o)
 .bss           0x0000000000000000        0x0 /opt/zephyr-sdk/sysroots/armv5-zephyr-eabi/usr/lib/arm-zephyr-eabi/6.2.0/armv7e-m/libgcc.a(_popcountsi2.o)
 .data          0x0000000000000000        0x0 /opt/zephyr-sdk/sysroots/armv5-zephyr-eabi/usr/lib/arm-zephyr-eabi/6.2.0/armv7e-m/libgcc.a(_udivmoddi4.o)
 .bss           0x0000000000000000        0x0 /opt/zephyr-sdk/sysroots/armv5-zephyr-eabi/usr/lib/arm-zephyr-eabi/6.2.0/armv7e-m/libgcc.a(_udivmoddi4.o)
 .ARM.extab     0x0000000000000000        0x0 /opt/zephyr-sdk/sysroots/armv5-zephyr-eabi/usr/lib/arm-zephyr-eabi/6.2.0/armv7e-m/libgcc.a(_udivmoddi4.o)
 .data          0x0000000000000000        0x0 /opt/zephyr-sdk/sysroots/armv5-zephyr-eabi/usr/lib/arm-zephyr-eabi/6.2.0/armv7e-m/libgcc.a(_dvmd_tls.o)
 .bss           0x0000000000000000        0x0 /opt/zephyr-sdk/sysroots/armv5-zephyr-eabi/usr/lib/arm-zephyr-eabi/6.2.0/armv7e-m/libgcc.a(_dvmd_tls.o)

Memory Configuration

Name             Origin             Length             Attributes
FLASH            0x0000000008000000 0x0000000000080000 xr
SRAM             0x0000000020000000 0x0000000000018000 xw
IDT_LIST         0x0000000020018000 0x0000000000000800 xw
*default*        0x0000000000000000 0xffffffffffffffff

Linker script and memory map

LOAD zephyr/CMakeFiles/kernel_elf.dir/misc/empty_file.c.obj
LOAD zephyr/CMakeFiles/kernel_elf.dir/isr_tables.c.obj
START GROUP
LOAD libapp.a
LOAD zephyr/libzephyr.a
LOAD zephyr/boards/arm/96b_carbon/libboards__arm__96b_carbon.a
LOAD zephyr/subsys/bluetooth/common/libsubsys__bluetooth__common.a
LOAD zephyr/subsys/bluetooth/host/libsubsys__bluetooth__host.a
LOAD zephyr/subsys/bluetooth/host/mesh/libsubsys__bluetooth__host__mesh.a
LOAD zephyr/subsys/net/libsubsys__net.a
LOAD zephyr/kernel/libkernel.a
LOAD zephyr/CMakeFiles/offsets.dir/arch/arm/core/offsets/offsets.c.obj
END GROUP
LOAD /opt/zephyr-sdk/sysroots/armv5-zephyr-eabi/usr/lib/arm-zephyr-eabi/6.2.0/armv7e-m/libgcc.a
                0x0000000008000000                _image_rom_start = 0x8000000

text            0x0000000008000000    0x12b7c
                0x0000000008000000                _vector_start = .
                0x0000000000000000                . = 0x0
 *(.exc_vector_table)
 *(.exc_vector_table.*)
 .exc_vector_table._vector_table_section
                0x0000000008000000       0x40 zephyr/libzephyr.a(vector_table.S.obj)
                0x0000000008000000                _vector_table
 *(.gnu.linkonce.irq_vector_table)
 .gnu.linkonce.irq_vector_table
                0x0000000008000040      0x154 zephyr/CMakeFiles/kernel_elf.dir/isr_tables.c.obj
                0x0000000008000040                _irq_vector_table
 *(.openocd_dbg)
 *(.openocd_dbg.*)
 *(.kinetis_flash_config)
 *(.kinetis_flash_config.*)
 *(.gnu.linkonce.sw_isr_table)
 .gnu.linkonce.sw_isr_table
                0x0000000008000194      0x2a8 zephyr/CMakeFiles/kernel_elf.dir/isr_tables.c.obj
                0x0000000008000194                _sw_isr_table
                0x000000000800043c                _vector_end = .
                0x000000000800043c                _image_text_start = .
 *(.text)
 .text          0x000000000800043c       0x18 /opt/zephyr-sdk/sysroots/armv5-zephyr-eabi/usr/lib/arm-zephyr-eabi/6.2.0/armv7e-m/libgcc.a(_ashldi3.o)
                0x000000000800043c                __ashldi3
                0x000000000800043c                __aeabi_llsl
 .text          0x0000000008000454       0xa0 /opt/zephyr-sdk/sysroots/armv5-zephyr-eabi/usr/lib/arm-zephyr-eabi/6.2.0/armv7e-m/libgcc.a(_aeabi_ldivmod.o)
                0x0000000008000454                __aeabi_ldivmod
 .text          0x00000000080004f4       0x30 /opt/zephyr-sdk/sysroots/armv5-zephyr-eabi/usr/lib/arm-zephyr-eabi/6.2.0/armv7e-m/libgcc.a(_aeabi_uldivmod.o)
                0x00000000080004f4                __aeabi_uldivmod
 .text          0x0000000008000524       0x28 /opt/zephyr-sdk/sysroots/armv5-zephyr-eabi/usr/lib/arm-zephyr-eabi/6.2.0/armv7e-m/libgcc.a(_popcountsi2.o)
                0x0000000008000524                __popcountsi2
 .text          0x000000000800054c      0x2dc /opt/zephyr-sdk/sysroots/armv5-zephyr-eabi/usr/lib/arm-zephyr-eabi/6.2.0/armv7e-m/libgcc.a(_udivmoddi4.o)
                0x000000000800054c                __udivmoddi4
 .text          0x0000000008000828        0x4 /opt/zephyr-sdk/sysroots/armv5-zephyr-eabi/usr/lib/arm-zephyr-eabi/6.2.0/armv7e-m/libgcc.a(_dvmd_tls.o)
                0x0000000008000828                __aeabi_ldiv0
                0x0000000008000828                __aeabi_idiv0
 *(.text.*)
 .text.strlen   0x000000000800082c       0x10 libapp.a(string.c.obj)
                0x000000000800082c                strlen
 .text.strcmp   0x000000000800083c       0x1a libapp.a(string.c.obj)
                0x000000000800083c                strcmp
 .text.memcmp   0x0000000008000856       0x2a libapp.a(string.c.obj)
                0x0000000008000856                memcmp
 .text.memcpy   0x0000000008000880       0x58 libapp.a(string.c.obj)
                0x0000000008000880                memcpy
 .text.memset   0x00000000080008d8       0x46 libapp.a(string.c.obj)
                0x00000000080008d8                memset
 *fill*         0x000000000800091e        0x2 
 .text.prov_complete
                0x0000000008000920       0x2c libapp.a(main.c.obj)
 .text.output_number
                0x000000000800094c       0x10 libapp.a(main.c.obj)
 .text.bt_ready
                0x000000000800095c       0x50 libapp.a(main.c.obj)
 .text.temp_srv_status
                0x00000000080009ac       0x44 libapp.a(main.c.obj)
 .text.main     0x00000000080009f0       0x2c libapp.a(main.c.obj)
                0x00000000080009f0                main
 .text._nop_char_out
                0x0000000008000a1c        0x4 zephyr/libzephyr.a(printk.c.obj)
 .text.char_out
                0x0000000008000a20       0x10 zephyr/libzephyr.a(printk.c.obj)
 .text._printk_dec_ulong
                0x0000000008000a30       0xa0 zephyr/libzephyr.a(printk.c.obj)
 .text.__printk_hook_install
                0x0000000008000ad0        0xc zephyr/libzephyr.a(printk.c.obj)
                0x0000000008000ad0                __printk_hook_install
 .text._vprintk
                0x0000000008000adc      0x25e zephyr/libzephyr.a(printk.c.obj)
                0x0000000008000adc                _vprintk
 *fill*         0x0000000008000d3a        0x2 
 .text.vprintk  0x0000000008000d3c       0x20 zephyr/libzephyr.a(printk.c.obj)
                0x0000000008000d3c                vprintk
 .text.printk   0x0000000008000d5c       0x1a zephyr/libzephyr.a(printk.c.obj)
                0x0000000008000d5c                printk
 .text._ConfigAbsSyms
                0x0000000008000d76        0x2 zephyr/libzephyr.a(configs.c.obj)
                0x0000000008000d76                _ConfigAbsSyms
 .text._copy    0x0000000008000d78       0x1a zephyr/libzephyr.a(utils.c.obj)
                0x0000000008000d78                _copy
 .text._set     0x0000000008000d92        0x4 zephyr/libzephyr.a(utils.c.obj)
                0x0000000008000d92                _set
 .text._double_byte
                0x0000000008000d96       0x12 zephyr/libzephyr.a(utils.c.obj)
                0x0000000008000d96                _double_byte
 .text.uECC_make_key
                0x0000000008000da8       0x98 zephyr/libzephyr.a(ecc_dh.c.obj)
                0x0000000008000da8                uECC_make_key
 .text.uECC_shared_secret
                0x0000000008000e40       0xbc zephyr/libzephyr.a(ecc_dh.c.obj)
                0x0000000008000e40                uECC_shared_secret
 .text.uECC_vli_add
                0x0000000008000efc       0x40 zephyr/libzephyr.a(ecc.c.obj)
 .text.uECC_vli_rshift1
                0x0000000008000f3c       0x1c zephyr/libzephyr.a(ecc.c.obj)
 .text.vli_modInv_update
                0x0000000008000f58       0x38 zephyr/libzephyr.a(ecc.c.obj)
 .text.uECC_vli_mult
                0x0000000008000f90       0xf8 zephyr/libzephyr.a(ecc.c.obj)
 .text.uECC_get_rng
                0x0000000008001088        0xc zephyr/libzephyr.a(ecc.c.obj)
                0x0000000008001088                uECC_get_rng
 .text.uECC_vli_clear
                0x0000000008001094       0x16 zephyr/libzephyr.a(ecc.c.obj)
                0x0000000008001094                uECC_vli_clear
 .text.uECC_vli_isZero
                0x00000000080010aa       0x1e zephyr/libzephyr.a(ecc.c.obj)
                0x00000000080010aa                uECC_vli_isZero
 .text.uECC_vli_testBit
                0x00000000080010c8       0x14 zephyr/libzephyr.a(ecc.c.obj)
                0x00000000080010c8                uECC_vli_testBit
 .text.uECC_vli_numBits
                0x00000000080010dc       0x3a zephyr/libzephyr.a(ecc.c.obj)
                0x00000000080010dc                uECC_vli_numBits
 .text.uECC_vli_set
                0x0000000008001116       0x18 zephyr/libzephyr.a(ecc.c.obj)
                0x0000000008001116                uECC_vli_set
 .text.uECC_vli_cmp_unsafe
                0x000000000800112e       0x28 zephyr/libzephyr.a(ecc.c.obj)
                0x000000000800112e                uECC_vli_cmp_unsafe
 .text.uECC_vli_equal
                0x0000000008001156       0x28 zephyr/libzephyr.a(ecc.c.obj)
                0x0000000008001156                uECC_vli_equal
 .text.uECC_vli_sub
                0x000000000800117e       0x40 zephyr/libzephyr.a(ecc.c.obj)
                0x000000000800117e                uECC_vli_sub
 *fill*         0x00000000080011be        0x2 
 .text.vli_mmod_fast_secp256r1
                0x00000000080011c0      0x1ac zephyr/libzephyr.a(ecc.c.obj)
                0x00000000080011c0                vli_mmod_fast_secp256r1
 .text.uECC_vli_modAdd
                0x000000000800136c       0x32 zephyr/libzephyr.a(ecc.c.obj)
                0x000000000800136c                uECC_vli_modAdd
 .text.uECC_vli_modSub
                0x000000000800139e       0x24 zephyr/libzephyr.a(ecc.c.obj)
                0x000000000800139e                uECC_vli_modSub
 .text.uECC_vli_mmod
                0x00000000080013c2      0x13c zephyr/libzephyr.a(ecc.c.obj)
                0x00000000080013c2                uECC_vli_mmod
 .text.uECC_vli_modMult_fast
                0x00000000080014fe       0x20 zephyr/libzephyr.a(ecc.c.obj)
                0x00000000080014fe                uECC_vli_modMult_fast
 .text.uECC_vli_modSquare_fast
                0x000000000800151e        0x8 zephyr/libzephyr.a(ecc.c.obj)
 .text.double_jacobian_default
                0x0000000008001526      0x156 zephyr/libzephyr.a(ecc.c.obj)
                0x0000000008001526                double_jacobian_default
 .text.x_side_default
                0x000000000800167c       0x5a zephyr/libzephyr.a(ecc.c.obj)
                0x000000000800167c                x_side_default
 .text.XYcZ_addC
                0x00000000080016d6      0x118 zephyr/libzephyr.a(ecc.c.obj)
 .text.uECC_vli_modInv
                0x00000000080017ee      0x10c zephyr/libzephyr.a(ecc.c.obj)
                0x00000000080017ee                uECC_vli_modInv
 .text.EccPoint_isZero
                0x00000000080018fa        0xa zephyr/libzephyr.a(ecc.c.obj)
                0x00000000080018fa                EccPoint_isZero
 .text.apply_z  0x0000000008001904       0x3e zephyr/libzephyr.a(ecc.c.obj)
                0x0000000008001904                apply_z
 .text.XYcZ_add
                0x0000000008001942       0xca zephyr/libzephyr.a(ecc.c.obj)
                0x0000000008001942                XYcZ_add
 .text.EccPoint_mult
                0x0000000008001a0c      0x1a2 zephyr/libzephyr.a(ecc.c.obj)
                0x0000000008001a0c                EccPoint_mult
 .text.regularize_k
                0x0000000008001bae       0x58 zephyr/libzephyr.a(ecc.c.obj)
                0x0000000008001bae                regularize_k
 .text.EccPoint_compute_public_key
                0x0000000008001c06       0x50 zephyr/libzephyr.a(ecc.c.obj)
                0x0000000008001c06                EccPoint_compute_public_key
 .text.uECC_vli_nativeToBytes
                0x0000000008001c56       0x28 zephyr/libzephyr.a(ecc.c.obj)
                0x0000000008001c56                uECC_vli_nativeToBytes
 .text.uECC_vli_bytesToNative
                0x0000000008001c7e       0x40 zephyr/libzephyr.a(ecc.c.obj)
                0x0000000008001c7e                uECC_vli_bytesToNative
 .text.uECC_valid_point
                0x0000000008001cbe       0x74 zephyr/libzephyr.a(ecc.c.obj)
                0x0000000008001cbe                uECC_valid_point
 .text.uECC_valid_public_key
                0x0000000008001d32       0x46 zephyr/libzephyr.a(ecc.c.obj)
                0x0000000008001d32                uECC_valid_public_key
 .text.add_round_key
                0x0000000008001d78       0x8a zephyr/libzephyr.a(aes_encrypt.c.obj)
 .text.shift_rows
                0x0000000008001e02       0x72 zephyr/libzephyr.a(aes_encrypt.c.obj)
 .text.mult_row_column
                0x0000000008001e74       0x80 zephyr/libzephyr.a(aes_encrypt.c.obj)
 .text.tc_aes128_set_encrypt_key
                0x0000000008001ef4       0xac zephyr/libzephyr.a(aes_encrypt.c.obj)
                0x0000000008001ef4                tc_aes128_set_encrypt_key
 .text.tc_aes_encrypt
                0x0000000008001fa0       0xd4 zephyr/libzephyr.a(aes_encrypt.c.obj)
                0x0000000008001fa0                tc_aes_encrypt
 .text.gf_double
                0x0000000008002074       0x2c zephyr/libzephyr.a(cmac_mode.c.obj)
                0x0000000008002074                gf_double
 .text.tc_cmac_erase
                0x00000000080020a0       0x12 zephyr/libzephyr.a(cmac_mode.c.obj)
                0x00000000080020a0                tc_cmac_erase
 .text.tc_cmac_init
                0x00000000080020b2       0x2e zephyr/libzephyr.a(cmac_mode.c.obj)
                0x00000000080020b2                tc_cmac_init
 .text.tc_cmac_setup
                0x00000000080020e0       0x58 zephyr/libzephyr.a(cmac_mode.c.obj)
                0x00000000080020e0                tc_cmac_setup
 .text.tc_cmac_update
                0x0000000008002138       0xc8 zephyr/libzephyr.a(cmac_mode.c.obj)
                0x0000000008002138                tc_cmac_update
 .text.tc_cmac_final
                0x0000000008002200       0x6c zephyr/libzephyr.a(cmac_mode.c.obj)
                0x0000000008002200                tc_cmac_final
 .text.compress
                0x000000000800226c      0x1d8 zephyr/libzephyr.a(sha256.c.obj)
 .text.tc_sha256_init
                0x0000000008002444       0x58 zephyr/libzephyr.a(sha256.c.obj)
                0x0000000008002444                tc_sha256_init
 .text.tc_sha256_update
                0x000000000800249c       0x5e zephyr/libzephyr.a(sha256.c.obj)
                0x000000000800249c                tc_sha256_update
 .text.tc_sha256_final
                0x00000000080024fa       0xd0 zephyr/libzephyr.a(sha256.c.obj)
                0x00000000080024fa                tc_sha256_final
 .text.rekey    0x00000000080025ca       0x3c zephyr/libzephyr.a(hmac.c.obj)
 .text.tc_hmac_set_key
                0x0000000008002606       0x7e zephyr/libzephyr.a(hmac.c.obj)
                0x0000000008002606                tc_hmac_set_key
 .text.tc_hmac_init
                0x0000000008002684       0x1c zephyr/libzephyr.a(hmac.c.obj)
                0x0000000008002684                tc_hmac_init
 .text.tc_hmac_update
                0x00000000080026a0        0xe zephyr/libzephyr.a(hmac.c.obj)
                0x00000000080026a0                tc_hmac_update
 .text.tc_hmac_final
                0x00000000080026ae       0x4c zephyr/libzephyr.a(hmac.c.obj)
                0x00000000080026ae                tc_hmac_final
 .text.update   0x00000000080026fa       0xca zephyr/libzephyr.a(hmac_prng.c.obj)
 .text.tc_hmac_prng_init
                0x00000000080027c4       0x4a zephyr/libzephyr.a(hmac_prng.c.obj)
                0x00000000080027c4                tc_hmac_prng_init
 .text.tc_hmac_prng_reseed
                0x000000000800280e       0x34 zephyr/libzephyr.a(hmac_prng.c.obj)
                0x000000000800280e                tc_hmac_prng_reseed
 .text.tc_hmac_prng_generate
                0x0000000008002842       0x7e zephyr/libzephyr.a(hmac_prng.c.obj)
                0x0000000008002842                tc_hmac_prng_generate
 .text.UTILS_SetFlashLatency.part.0
                0x00000000080028c0       0x7c zephyr/libzephyr.a(stm32f4xx_ll_utils.c.obj)
 .text.UTILS_PLL_IsBusy
                0x000000000800293c       0x1c zephyr/libzephyr.a(stm32f4xx_ll_utils.c.obj)
 .text.UTILS_EnablePLLAndSwitchSystem
                0x0000000008002958       0x9c zephyr/libzephyr.a(stm32f4xx_ll_utils.c.obj)
 .text.LL_PLL_ConfigSystemClock_HSE
                0x00000000080029f4       0x8c zephyr/libzephyr.a(stm32f4xx_ll_utils.c.obj)
                0x00000000080029f4                LL_PLL_ConfigSystemClock_HSE
 .text.st_stm32f4_init
                0x0000000008002a80       0x30 zephyr/libzephyr.a(soc.c.obj)
 .text.stm32_gpio_flags_to_conf
                0x0000000008002ab0       0x3a zephyr/libzephyr.a(soc_gpio.c.obj)
                0x0000000008002ab0                stm32_gpio_flags_to_conf
 .text.stm32_gpio_configure
                0x0000000008002aea       0x8c zephyr/libzephyr.a(soc_gpio.c.obj)
                0x0000000008002aea                stm32_gpio_configure
 .text.stm32_gpio_set
                0x0000000008002b76       0x14 zephyr/libzephyr.a(soc_gpio.c.obj)
                0x0000000008002b76                stm32_gpio_set
 .text.stm32_gpio_get
                0x0000000008002b8a        0xa zephyr/libzephyr.a(soc_gpio.c.obj)
                0x0000000008002b8a                stm32_gpio_get
 .text.stm32_gpio_enable_int
                0x0000000008002b94       0x88 zephyr/libzephyr.a(soc_gpio.c.obj)
                0x0000000008002b94                stm32_gpio_enable_int
 .text._HandlerModeExit
                0x0000000008002c1c       0x2c zephyr/libzephyr.a(exc_exit.S.obj)
                0x0000000008002c1c                _ExcExit
                0x0000000008002c1c                _IntExit
 .text._IntLibInit
                0x0000000008002c48       0x18 zephyr/libzephyr.a(irq_init.c.obj)
                0x0000000008002c48                _IntLibInit
 .text.__pendsv
                0x0000000008002c60       0x44 zephyr/libzephyr.a(swap.S.obj)
                0x0000000008002c60                __pendsv
 .text.__svc    0x0000000008002ca4       0x3c zephyr/libzephyr.a(swap.S.obj)
                0x0000000008002ca4                __svc
 .text.__swap   0x0000000008002ce0       0x1c zephyr/libzephyr.a(swap.S.obj)
                0x0000000008002ce0                __swap
 .text._FaultThreadShow.isra.2
                0x0000000008002cfc       0x1c zephyr/libzephyr.a(fault.c.obj)
 .text._UsageFault
                0x0000000008002d18       0x90 zephyr/libzephyr.a(fault.c.obj)
 .text._MpuFault
                0x0000000008002da8       0x80 zephyr/libzephyr.a(fault.c.obj)
 .text._BusFault
                0x0000000008002e28       0x94 zephyr/libzephyr.a(fault.c.obj)
 .text._Fault   0x0000000008002ebc       0xcc zephyr/libzephyr.a(fault.c.obj)
                0x0000000008002ebc                _Fault
 .text._FaultInit
                0x0000000008002f88       0x10 zephyr/libzephyr.a(fault.c.obj)
                0x0000000008002f88                _FaultInit
 .text._arch_irq_enable
                0x0000000008002f98       0x1c zephyr/libzephyr.a(irq_manage.c.obj)
                0x0000000008002f98                _arch_irq_enable
 .text._irq_priority_set
                0x0000000008002fb4       0x30 zephyr/libzephyr.a(irq_manage.c.obj)
                0x0000000008002fb4                _irq_priority_set
 .text._irq_spurious
                0x0000000008002fe4        0x4 zephyr/libzephyr.a(irq_manage.c.obj)
                0x0000000008002fe4                _irq_spurious
 .text._new_thread
                0x0000000008002fe8       0x50 zephyr/libzephyr.a(thread.c.obj)
                0x0000000008002fe8                _new_thread
 .text._CpuIdleInit
                0x0000000008003038        0xc zephyr/libzephyr.a(cpu_idle.S.obj)
                0x0000000008003038                _CpuIdleInit
 .text.k_cpu_idle
                0x0000000008003044        0xc zephyr/libzephyr.a(cpu_idle.S.obj)
                0x0000000008003044                k_cpu_idle
 .text.__fault  0x0000000008003050       0x28 zephyr/libzephyr.a(fault_s.S.obj)
                0x0000000008003050                __usage_fault
                0x0000000008003050                __reserved
                0x0000000008003050                __bus_fault
                0x0000000008003050                __debug_monitor
                0x0000000008003050                __mpu_fault
                0x0000000008003050                __hard_fault
 .text._NanoFatalErrorHandler
                0x0000000008003078       0x58 zephyr/libzephyr.a(fatal.c.obj)
                0x0000000008003078                _NanoFatalErrorHandler
 .text._do_kernel_oops
                0x00000000080030d0        0x8 zephyr/libzephyr.a(fatal.c.obj)
                0x00000000080030d0                _do_kernel_oops
 .text._SysFatalErrorHandler
                0x00000000080030d8       0x58 zephyr/libzephyr.a(sys_fatal_error_handler.c.obj)
                0x00000000080030d8                _SysFatalErrorHandler
 .text._impl_k_thread_abort
                0x0000000008003130       0x4c zephyr/libzephyr.a(thread_abort.c.obj)
                0x0000000008003130                _impl_k_thread_abort
 .text._isr_wrapper
                0x000000000800317c       0x24 zephyr/libzephyr.a(isr_wrapper.S.obj)
                0x000000000800317c                _isr_wrapper
 .text._reset_section
                0x00000000080031a0       0x20 zephyr/libzephyr.a(reset.S.obj)
                0x00000000080031a0                __reset
                0x00000000080031a0                __start
 .text._SysNmiOnReset
                0x00000000080031c0        0x8 zephyr/libzephyr.a(nmi_on_reset.S.obj)
                0x00000000080031c0                _SysNmiOnReset
 .text._PrepC   0x00000000080031c8       0x28 zephyr/libzephyr.a(prep_c.c.obj)
                0x00000000080031c8                _PrepC
 .text.__nmi    0x00000000080031f0        0xe zephyr/libzephyr.a(nmi.c.obj)
                0x00000000080031f0                __nmi
 *fill*         0x00000000080031fe        0x2 
 .text.arm_mpu_init
                0x0000000008003200       0x64 zephyr/libzephyr.a(arm_mpu.c.obj)
 .text.console_out
                0x0000000008003264       0x28 zephyr/libzephyr.a(uart_console.c.obj)
 .text.uart_console_hook_install
                0x000000000800328c        0xc zephyr/libzephyr.a(uart_console.c.obj)
                0x000000000800328c                uart_console_hook_install
 .text.uart_console_init
                0x0000000008003298       0x1c zephyr/libzephyr.a(uart_console.c.obj)
 .text.__stm32_exti_isr
                0x00000000080032b4       0x3c zephyr/libzephyr.a(exti_stm32.c.obj)
 .text.__stm32_exti_isr_0
                0x00000000080032f0        0xa zephyr/libzephyr.a(exti_stm32.c.obj)
 .text.__stm32_exti_isr_1
                0x00000000080032fa        0xa zephyr/libzephyr.a(exti_stm32.c.obj)
 .text.__stm32_exti_isr_2
                0x0000000008003304        0xa zephyr/libzephyr.a(exti_stm32.c.obj)
 .text.__stm32_exti_isr_3
                0x000000000800330e        0xa zephyr/libzephyr.a(exti_stm32.c.obj)
 .text.__stm32_exti_isr_4
                0x0000000008003318        0xa zephyr/libzephyr.a(exti_stm32.c.obj)
 .text.__stm32_exti_isr_9_5
                0x0000000008003322        0xa zephyr/libzephyr.a(exti_stm32.c.obj)
 .text.__stm32_exti_isr_15_10
                0x000000000800332c        0xa zephyr/libzephyr.a(exti_stm32.c.obj)
 .text.__stm32_exti_isr_16
                0x0000000008003336        0xa zephyr/libzephyr.a(exti_stm32.c.obj)
 .text.__stm32_exti_isr_17
                0x0000000008003340        0xa zephyr/libzephyr.a(exti_stm32.c.obj)
 .text.__stm32_exti_isr_18
                0x000000000800334a        0xa zephyr/libzephyr.a(exti_stm32.c.obj)
 .text.__stm32_exti_isr_21
                0x0000000008003354        0xa zephyr/libzephyr.a(exti_stm32.c.obj)
 .text.__stm32_exti_isr_22
                0x000000000800335e        0xa zephyr/libzephyr.a(exti_stm32.c.obj)
 .text.stm32_exti_init
                0x0000000008003368       0x7e zephyr/libzephyr.a(exti_stm32.c.obj)
 *fill*         0x00000000080033e6        0x2 
 .text.stm32_exti_enable
                0x00000000080033e8       0x44 zephyr/libzephyr.a(exti_stm32.c.obj)
                0x00000000080033e8                stm32_exti_enable
 .text.stm32_exti_trigger
                0x000000000800342c       0x2c zephyr/libzephyr.a(exti_stm32.c.obj)
                0x000000000800342c                stm32_exti_trigger
 .text.stm32_exti_set_callback
                0x0000000008003458       0x18 zephyr/libzephyr.a(exti_stm32.c.obj)
                0x0000000008003458                stm32_exti_set_callback
 .text.stm32_clock_control_on
                0x0000000008003470       0x68 zephyr/libzephyr.a(stm32_ll_clock.c.obj)
 .text.stm32_clock_control_off
                0x00000000080034d8       0x4c zephyr/libzephyr.a(stm32_ll_clock.c.obj)
 .text.stm32_clock_control_get_subsys_rate
                0x0000000008003524       0x20 zephyr/libzephyr.a(stm32_ll_clock.c.obj)
 .text.stm32_clock_control_init
                0x0000000008003544       0x98 zephyr/libzephyr.a(stm32_ll_clock.c.obj)
 .text.config_pll_init
                0x00000000080035dc       0x10 zephyr/libzephyr.a(stm32f4x_ll_clock.c.obj)
                0x00000000080035dc                config_pll_init
 .text.config_enable_default_clocks
                0x00000000080035ec       0x20 zephyr/libzephyr.a(stm32f4x_ll_clock.c.obj)
                0x00000000080035ec                config_enable_default_clocks
 .text.LL_RCC_MSI_Disable
                0x000000000800360c        0x2 zephyr/libzephyr.a(stm32f4x_ll_clock.c.obj)
                0x000000000800360c                LL_RCC_MSI_Disable
 .text._flash_get_page_info
                0x000000000800360e       0x92 zephyr/libzephyr.a(flash_page_layout.c.obj)
 .text._impl_flash_get_page_info_by_offs
                0x00000000080036a0        0x8 zephyr/libzephyr.a(flash_page_layout.c.obj)
                0x00000000080036a0                _impl_flash_get_page_info_by_offs
 .text.flash_stm32_read
                0x00000000080036a8       0x2a zephyr/libzephyr.a(flash_stm32.c.obj)
 .text.flash_stm32_write
                0x00000000080036d2       0x42 zephyr/libzephyr.a(flash_stm32.c.obj)
 .text.flash_stm32_erase
                0x0000000008003714       0x8e zephyr/libzephyr.a(flash_stm32.c.obj)
 .text.flash_stm32_wait_flash_idle
                0x00000000080037a2       0x2e zephyr/libzephyr.a(flash_stm32.c.obj)
                0x00000000080037a2                flash_stm32_wait_flash_idle
 .text.flash_stm32_write_protection
                0x00000000080037d0       0x58 zephyr/libzephyr.a(flash_stm32.c.obj)
 .text.stm32_flash_init
                0x0000000008003828       0x1c zephyr/libzephyr.a(flash_stm32.c.obj)
 .text.flash_stm32_valid_range
                0x0000000008003844       0x2a zephyr/libzephyr.a(flash_stm32f4x.c.obj)
                0x0000000008003844                flash_stm32_valid_range
 .text.flash_stm32_block_erase_loop
                0x000000000800386e       0x84 zephyr/libzephyr.a(flash_stm32f4x.c.obj)
                0x000000000800386e                flash_stm32_block_erase_loop
 .text.flash_stm32_write_range
                0x00000000080038f2       0x6a zephyr/libzephyr.a(flash_stm32f4x.c.obj)
                0x00000000080038f2                flash_stm32_write_range
 .text.flash_stm32_page_layout
                0x000000000800395c       0x10 zephyr/libzephyr.a(flash_stm32f4x.c.obj)
                0x000000000800395c                flash_stm32_page_layout
 .text.gpio_stm32_isr
                0x000000000800396c       0x2c zephyr/libzephyr.a(gpio_stm32.c.obj)
 .text.gpio_stm32_manage_callback
                0x0000000008003998       0x44 zephyr/libzephyr.a(gpio_stm32.c.obj)
 .text.gpio_stm32_enable_callback
                0x00000000080039dc       0x1a zephyr/libzephyr.a(gpio_stm32.c.obj)
 .text.gpio_stm32_disable_callback
                0x00000000080039f6       0x1c zephyr/libzephyr.a(gpio_stm32.c.obj)
 *fill*         0x0000000008003a12        0x2 
 .text.gpio_stm32_init
                0x0000000008003a14       0x20 zephyr/libzephyr.a(gpio_stm32.c.obj)
 .text.gpio_stm32_read
                0x0000000008003a34       0x20 zephyr/libzephyr.a(gpio_stm32.c.obj)
 .text.gpio_stm32_write
                0x0000000008003a54       0x1e zephyr/libzephyr.a(gpio_stm32.c.obj)
 *fill*         0x0000000008003a72        0x2 
 .text.gpio_stm32_config
                0x0000000008003a74       0x78 zephyr/libzephyr.a(gpio_stm32.c.obj)
 .text.stm32_i2c_msg_write
                0x0000000008003aec       0xc0 zephyr/libzephyr.a(i2c_ll_stm32_v1.c.obj)
                0x0000000008003aec                stm32_i2c_msg_write
 .text.stm32_i2c_msg_read
                0x0000000008003bac      0x130 zephyr/libzephyr.a(i2c_ll_stm32_v1.c.obj)
                0x0000000008003bac                stm32_i2c_msg_read
 .text.stm32_i2c_configure_timing
                0x0000000008003cdc       0xb4 zephyr/libzephyr.a(i2c_ll_stm32_v1.c.obj)
                0x0000000008003cdc                stm32_i2c_configure_timing
 .text.i2c_stm32_runtime_configure
                0x0000000008003d90       0x50 zephyr/libzephyr.a(i2c_ll_stm32.c.obj)
 .text.i2c_stm32_init
                0x0000000008003de0       0x78 zephyr/libzephyr.a(i2c_ll_stm32.c.obj)
 .text.i2c_stm32_transfer
                0x0000000008003e58       0x84 zephyr/libzephyr.a(i2c_ll_stm32.c.obj)
 .text._pinmux_stm32_set
                0x0000000008003edc       0x54 zephyr/libzephyr.a(pinmux_stm32.c.obj)
                0x0000000008003edc                _pinmux_stm32_set
 .text.stm32_setup_pins
                0x0000000008003f30       0x30 zephyr/libzephyr.a(pinmux_stm32.c.obj)
                0x0000000008003f30                stm32_setup_pins
 .text.uart_stm32_poll_in
                0x0000000008003f60       0x18 zephyr/libzephyr.a(uart_stm32.c.obj)
 .text.uart_stm32_poll_out
                0x0000000008003f78       0x18 zephyr/libzephyr.a(uart_stm32.c.obj)
 .text.uart_stm32_init
                0x0000000008003f90       0x84 zephyr/libzephyr.a(uart_stm32.c.obj)
 .text.spi_stm32_transfer_ongoing
                0x0000000008004014       0x1e zephyr/libzephyr.a(spi_ll_stm32.c.obj)
 .text.spi_stm32_next_tx
                0x0000000008004032       0x24 zephyr/libzephyr.a(spi_ll_stm32.c.obj)
 .text.spi_stm32_irq_config_func_1
                0x0000000008004056       0x16 zephyr/libzephyr.a(spi_ll_stm32.c.obj)
 .text.spi_stm32_init
                0x000000000800406c       0x30 zephyr/libzephyr.a(spi_ll_stm32.c.obj)
 .text.gpio_pin_write
                0x000000000800409c       0x12 zephyr/libzephyr.a(spi_ll_stm32.c.obj)
 .text.spi_stm32_release
                0x00000000080040ae       0x14 zephyr/libzephyr.a(spi_ll_stm32.c.obj)
 .text.spi_stm32_complete
                0x00000000080040c2       0x8a zephyr/libzephyr.a(spi_ll_stm32.c.obj)
 .text.spi_stm32_isr
                0x000000000800414c      0x1be zephyr/libzephyr.a(spi_ll_stm32.c.obj)
 *fill*         0x000000000800430a        0x2 
 .text.transceive
                0x000000000800430c      0x270 zephyr/libzephyr.a(spi_ll_stm32.c.obj)
 .text.spi_stm32_transceive_async
                0x000000000800457c       0x16 zephyr/libzephyr.a(spi_ll_stm32.c.obj)
 .text.spi_stm32_transceive
                0x0000000008004592       0x14 zephyr/libzephyr.a(spi_ll_stm32.c.obj)
 *fill*         0x00000000080045a6        0x2 
 .text._bt_spi_init
                0x00000000080045a8       0x54 zephyr/libzephyr.a(spi.c.obj)
 .text.bt_spi_isr
                0x00000000080045fc        0xc zephyr/libzephyr.a(spi.c.obj)
 .text.bt_spi_transceive
                0x0000000008004608       0x30 zephyr/libzephyr.a(spi.c.obj)
 .text.bt_spi_send
                0x0000000008004638       0xc8 zephyr/libzephyr.a(spi.c.obj)
 .text.bt_spi_rx_thread
                0x0000000008004700      0x158 zephyr/libzephyr.a(spi.c.obj)
 .text.bt_spi_open
                0x0000000008004858       0xd0 zephyr/libzephyr.a(spi.c.obj)
 .text._timer_int_handler
                0x0000000008004928       0x2c zephyr/libzephyr.a(cortex_m_systick.c.obj)
                0x0000000008004928                _timer_int_handler
 .text._sys_clock_driver_init
                0x0000000008004954       0x2c zephyr/libzephyr.a(cortex_m_systick.c.obj)
                0x0000000008004954                _sys_clock_driver_init
 .text._timer_cycle_get_32
                0x0000000008004980       0x20 zephyr/libzephyr.a(cortex_m_systick.c.obj)
                0x0000000008004980                _timer_cycle_get_32
 .text.pinmux_stm32_init
                0x00000000080049a0       0x14 zephyr/boards/arm/96b_carbon/libboards__arm__96b_carbon.a(pinmux.c.obj)
 .text.send_cmd_status
                0x00000000080049b4       0x4c zephyr/subsys/bluetooth/host/libsubsys__bluetooth__host.a(hci_ecc.c.obj)
 .text.sys_memcpy_swap.constprop.3
                0x0000000008004a00       0x14 zephyr/subsys/bluetooth/host/libsubsys__bluetooth__host.a(hci_ecc.c.obj)
 .text.ecc_thread
                0x0000000008004a14      0x170 zephyr/subsys/bluetooth/host/libsubsys__bluetooth__host.a(hci_ecc.c.obj)
 .text.bt_hci_ecc_send
                0x0000000008004b84      0x124 zephyr/subsys/bluetooth/host/libsubsys__bluetooth__host.a(hci_ecc.c.obj)
                0x0000000008004b84                bt_hci_ecc_send
 .text.default_CSPRNG
                0x0000000008004ca8        0xe zephyr/subsys/bluetooth/host/libsubsys__bluetooth__host.a(hci_ecc.c.obj)
                0x0000000008004ca8                default_CSPRNG
 *fill*         0x0000000008004cb6        0x2 
 .text.bt_hci_ecc_init
                0x0000000008004cb8       0x34 zephyr/subsys/bluetooth/host/libsubsys__bluetooth__host.a(hci_ecc.c.obj)
                0x0000000008004cb8                bt_hci_ecc_init
 .text.uuid_to_uuid128
                0x0000000008004cec       0x7c zephyr/subsys/bluetooth/host/libsubsys__bluetooth__host.a(uuid.c.obj)
 .text.bt_uuid_cmp
                0x0000000008004d68       0x54 zephyr/subsys/bluetooth/host/libsubsys__bluetooth__host.a(uuid.c.obj)
                0x0000000008004d68                bt_uuid_cmp
 .text.net_buf_user_data
                0x0000000008004dbc        0xc zephyr/subsys/bluetooth/host/libsubsys__bluetooth__host.a(hci_core.c.obj)
 .text.bt_addr_le_copy
                0x0000000008004dc8        0x6 zephyr/subsys/bluetooth/host/libsubsys__bluetooth__host.a(hci_core.c.obj)
 .text.atomic_or
                0x0000000008004dce       0x22 zephyr/subsys/bluetooth/host/libsubsys__bluetooth__host.a(hci_core.c.obj)
 .text.atomic_test_bit
                0x0000000008004df0       0x1a zephyr/subsys/bluetooth/host/libsubsys__bluetooth__host.a(hci_core.c.obj)
 .text.atomic_and
                0x0000000008004e0a       0x22 zephyr/subsys/bluetooth/host/libsubsys__bluetooth__host.a(hci_core.c.obj)
 .text.update_conn_param
                0x0000000008004e2c       0x1c zephyr/subsys/bluetooth/host/libsubsys__bluetooth__host.a(hci_core.c.obj)
 .text.hci_cmd_done.isra.13
                0x0000000008004e48       0x34 zephyr/subsys/bluetooth/host/libsubsys__bluetooth__host.a(hci_core.c.obj)
 .text.hci_tx_thread
                0x0000000008004e7c       0xec zephyr/subsys/bluetooth/host/libsubsys__bluetooth__host.a(hci_core.c.obj)
 .text.bt_hci_cmd_create
                0x0000000008004f68       0x48 zephyr/subsys/bluetooth/host/libsubsys__bluetooth__host.a(hci_core.c.obj)
                0x0000000008004f68                bt_hci_cmd_create
 .text.bt_hci_cmd_send
                0x0000000008004fb0       0x44 zephyr/subsys/bluetooth/host/libsubsys__bluetooth__host.a(hci_core.c.obj)
                0x0000000008004fb0                bt_hci_cmd_send
 .text.report_completed_packet
                0x0000000008004ff4       0x84 zephyr/subsys/bluetooth/host/libsubsys__bluetooth__host.a(hci_core.c.obj)
 .text.hci_le_set_phy.isra.25
                0x0000000008005078       0x40 zephyr/subsys/bluetooth/host/libsubsys__bluetooth__host.a(hci_core.c.obj)
 .text.le_conn_param_neg_reply
                0x00000000080050b8       0x34 zephyr/subsys/bluetooth/host/libsubsys__bluetooth__host.a(hci_core.c.obj)
 .text.bt_hci_cmd_send_sync
                0x00000000080050ec       0x70 zephyr/subsys/bluetooth/host/libsubsys__bluetooth__host.a(hci_core.c.obj)
                0x00000000080050ec                bt_hci_cmd_send_sync
 .text.set_random_address
                0x000000000800515c       0x5c zephyr/subsys/bluetooth/host/libsubsys__bluetooth__host.a(hci_core.c.obj)
 .text.le_set_private_addr
                0x00000000080051b8       0x24 zephyr/subsys/bluetooth/host/libsubsys__bluetooth__host.a(hci_core.c.obj)
 .text.set_le_scan_enable
                0x00000000080051dc       0x68 zephyr/subsys/bluetooth/host/libsubsys__bluetooth__host.a(hci_core.c.obj)
 .text.set_advertise_enable
                0x0000000008005244       0x54 zephyr/subsys/bluetooth/host/libsubsys__bluetooth__host.a(hci_core.c.obj)
 .text.set_ad   0x0000000008005298       0x98 zephyr/subsys/bluetooth/host/libsubsys__bluetooth__host.a(hci_core.c.obj)
 .text.hci_le_set_data_len.isra.26
                0x0000000008005330       0x54 zephyr/subsys/bluetooth/host/libsubsys__bluetooth__host.a(hci_core.c.obj)
 .text.bt_le_conn_params_valid
                0x0000000008005384       0x40 zephyr/subsys/bluetooth/host/libsubsys__bluetooth__host.a(hci_core.c.obj)
                0x0000000008005384                bt_le_conn_params_valid
 .text.bt_le_scan_update
                0x00000000080053c4       0x2c zephyr/subsys/bluetooth/host/libsubsys__bluetooth__host.a(hci_core.c.obj)
                0x00000000080053c4                bt_le_scan_update
 .text.le_enh_conn_complete
                0x00000000080053f0      0x18c zephyr/subsys/bluetooth/host/libsubsys__bluetooth__host.a(hci_core.c.obj)
 .text.hci_rx_thread
                0x000000000800557c      0x5c4 zephyr/subsys/bluetooth/host/libsubsys__bluetooth__host.a(hci_core.c.obj)
 .text.bt_addr_le_create_static
                0x0000000008005b40       0x1c zephyr/subsys/bluetooth/host/libsubsys__bluetooth__host.a(hci_core.c.obj)
                0x0000000008005b40                bt_addr_le_create_static
 .text.bt_init  0x0000000008005b5c      0x570 zephyr/subsys/bluetooth/host/libsubsys__bluetooth__host.a(hci_core.c.obj)
 .text.init_work
                0x00000000080060cc       0x18 zephyr/subsys/bluetooth/host/libsubsys__bluetooth__host.a(hci_core.c.obj)
 .text.bt_send  0x00000000080060e4        0x4 zephyr/subsys/bluetooth/host/libsubsys__bluetooth__host.a(hci_core.c.obj)
                0x00000000080060e4                bt_send
 .text.bt_recv  0x00000000080060e8       0x40 zephyr/subsys/bluetooth/host/libsubsys__bluetooth__host.a(hci_core.c.obj)
                0x00000000080060e8                bt_recv
 .text.bt_recv_prio
                0x0000000008006128      0x11c zephyr/subsys/bluetooth/host/libsubsys__bluetooth__host.a(hci_core.c.obj)
                0x0000000008006128                bt_recv_prio
 .text.bt_hci_driver_register
                0x0000000008006244       0x28 zephyr/subsys/bluetooth/host/libsubsys__bluetooth__host.a(hci_core.c.obj)
                0x0000000008006244                bt_hci_driver_register
 .text.bt_enable
                0x000000000800626c       0xcc zephyr/subsys/bluetooth/host/libsubsys__bluetooth__host.a(hci_core.c.obj)
                0x000000000800626c                bt_enable
 .text.bt_addr_le_is_bonded
                0x0000000008006338        0x4 zephyr/subsys/bluetooth/host/libsubsys__bluetooth__host.a(hci_core.c.obj)
                0x0000000008006338                bt_addr_le_is_bonded
 .text.bt_le_adv_start
                0x000000000800633c      0x138 zephyr/subsys/bluetooth/host/libsubsys__bluetooth__host.a(hci_core.c.obj)
                0x000000000800633c                bt_le_adv_start
 .text.bt_le_adv_stop
                0x0000000008006474       0x4c zephyr/subsys/bluetooth/host/libsubsys__bluetooth__host.a(hci_core.c.obj)
                0x0000000008006474                bt_le_adv_stop
 .text.bt_le_scan_start
                0x00000000080064c0      0x138 zephyr/subsys/bluetooth/host/libsubsys__bluetooth__host.a(hci_core.c.obj)
                0x00000000080064c0                bt_le_scan_start
 .text.bt_le_scan_stop
                0x00000000080065f8       0x2c zephyr/subsys/bluetooth/host/libsubsys__bluetooth__host.a(hci_core.c.obj)
                0x00000000080065f8                bt_le_scan_stop
 .text.bt_buf_get_rx
                0x0000000008006624       0x30 zephyr/subsys/bluetooth/host/libsubsys__bluetooth__host.a(hci_core.c.obj)
                0x0000000008006624                bt_buf_get_rx
 .text.bt_buf_get_cmd_complete
                0x0000000008006654       0x48 zephyr/subsys/bluetooth/host/libsubsys__bluetooth__host.a(hci_core.c.obj)
                0x0000000008006654                bt_buf_get_cmd_complete
 .text.bt_pub_key_gen
                0x000000000800669c       0x84 zephyr/subsys/bluetooth/host/libsubsys__bluetooth__host.a(hci_core.c.obj)
                0x000000000800669c                bt_pub_key_gen
 .text.bt_pub_key_get
                0x0000000008006720       0x1c zephyr/subsys/bluetooth/host/libsubsys__bluetooth__host.a(hci_core.c.obj)
                0x0000000008006720                bt_pub_key_get
 .text.bt_dh_key_gen
                0x000000000800673c       0x74 zephyr/subsys/bluetooth/host/libsubsys__bluetooth__host.a(hci_core.c.obj)
                0x000000000800673c                bt_dh_key_gen
 .text.prng_reseed.constprop.0
                0x00000000080067b0       0x5c zephyr/subsys/bluetooth/host/libsubsys__bluetooth__host.a(crypto.c.obj)
 .text.prng_init
                0x000000000800680c       0x50 zephyr/subsys/bluetooth/host/libsubsys__bluetooth__host.a(crypto.c.obj)
                0x000000000800680c                prng_init
 .text.bt_rand  0x000000000800685c       0x30 zephyr/subsys/bluetooth/host/libsubsys__bluetooth__host.a(crypto.c.obj)
                0x000000000800685c                bt_rand
 .text.bt_encrypt_be
                0x000000000800688c       0x2c zephyr/subsys/bluetooth/host/libsubsys__bluetooth__host.a(crypto.c.obj)
                0x000000000800688c                bt_encrypt_be
 .text.notify_connected
                0x00000000080068b8       0x20 zephyr/subsys/bluetooth/host/libsubsys__bluetooth__host.a(conn.c.obj)
 .text.atomic_get
                0x00000000080068d8        0xc zephyr/subsys/bluetooth/host/libsubsys__bluetooth__host.a(conn.c.obj)
 .text.bt_conn_reset_rx_state
                0x00000000080068e4       0x16 zephyr/subsys/bluetooth/host/libsubsys__bluetooth__host.a(conn.c.obj)
 .text.atomic_dec
                0x00000000080068fa       0x1a zephyr/subsys/bluetooth/host/libsubsys__bluetooth__host.a(conn.c.obj)
 .text.atomic_inc
                0x0000000008006914       0x1a zephyr/subsys/bluetooth/host/libsubsys__bluetooth__host.a(conn.c.obj)
 *fill*         0x000000000800692e        0x2 
 .text.bt_conn_get_pkts
                0x0000000008006930        0x8 zephyr/subsys/bluetooth/host/libsubsys__bluetooth__host.a(conn.c.obj)
                0x0000000008006930                bt_conn_get_pkts
 .text.notify_le_param_updated
                0x0000000008006938       0x28 zephyr/subsys/bluetooth/host/libsubsys__bluetooth__host.a(conn.c.obj)
                0x0000000008006938                notify_le_param_updated
 .text.le_param_req
                0x0000000008006960       0x40 zephyr/subsys/bluetooth/host/libsubsys__bluetooth__host.a(conn.c.obj)
                0x0000000008006960                le_param_req
 .text.bt_conn_cb_register
                0x00000000080069a0       0x10 zephyr/subsys/bluetooth/host/libsubsys__bluetooth__host.a(conn.c.obj)
                0x00000000080069a0                bt_conn_cb_register
 .text.bt_conn_recv
                0x00000000080069b0       0x8e zephyr/subsys/bluetooth/host/libsubsys__bluetooth__host.a(conn.c.obj)
                0x00000000080069b0                bt_conn_recv
 .text.bt_conn_send_cb
                0x0000000008006a3e       0x4c zephyr/subsys/bluetooth/host/libsubsys__bluetooth__host.a(conn.c.obj)
                0x0000000008006a3e                bt_conn_send_cb
 *fill*         0x0000000008006a8a        0x2 
 .text.bt_conn_notify_tx
                0x0000000008006a8c       0x40 zephyr/subsys/bluetooth/host/libsubsys__bluetooth__host.a(conn.c.obj)
                0x0000000008006a8c                bt_conn_notify_tx
 .text.send_frag
                0x0000000008006acc      0x118 zephyr/subsys/bluetooth/host/libsubsys__bluetooth__host.a(conn.c.obj)
 .text.conn_cleanup
                0x0000000008006be4       0x30 zephyr/subsys/bluetooth/host/libsubsys__bluetooth__host.a(conn.c.obj)
 .text.bt_conn_prepare_events
                0x0000000008006c14       0x90 zephyr/subsys/bluetooth/host/libsubsys__bluetooth__host.a(conn.c.obj)
                0x0000000008006c14                bt_conn_prepare_events
 .text.bt_conn_add_le
                0x0000000008006ca4       0x68 zephyr/subsys/bluetooth/host/libsubsys__bluetooth__host.a(conn.c.obj)
                0x0000000008006ca4                bt_conn_add_le
 .text.bt_conn_set_state
                0x0000000008006d0c      0x11c zephyr/subsys/bluetooth/host/libsubsys__bluetooth__host.a(conn.c.obj)
                0x0000000008006d0c                bt_conn_set_state
 .text.bt_conn_lookup_handle
                0x0000000008006e28       0x34 zephyr/subsys/bluetooth/host/libsubsys__bluetooth__host.a(conn.c.obj)
                0x0000000008006e28                bt_conn_lookup_handle
 .text.bt_conn_addr_le_cmp
                0x0000000008006e5c       0x30 zephyr/subsys/bluetooth/host/libsubsys__bluetooth__host.a(conn.c.obj)
                0x0000000008006e5c                bt_conn_addr_le_cmp
 .text.bt_conn_lookup_addr_le
                0x0000000008006e8c       0x34 zephyr/subsys/bluetooth/host/libsubsys__bluetooth__host.a(conn.c.obj)
                0x0000000008006e8c                bt_conn_lookup_addr_le
 .text.bt_conn_lookup_state_le
                0x0000000008006ec0       0x44 zephyr/subsys/bluetooth/host/libsubsys__bluetooth__host.a(conn.c.obj)
                0x0000000008006ec0                bt_conn_lookup_state_le
 .text.bt_conn_ref
                0x0000000008006f04        0xe zephyr/subsys/bluetooth/host/libsubsys__bluetooth__host.a(conn.c.obj)
                0x0000000008006f04                bt_conn_ref
 .text.bt_conn_unref
                0x0000000008006f12        0x6 zephyr/subsys/bluetooth/host/libsubsys__bluetooth__host.a(conn.c.obj)
                0x0000000008006f12                bt_conn_unref
 .text.bt_conn_disconnect
                0x0000000008006f18       0x6c zephyr/subsys/bluetooth/host/libsubsys__bluetooth__host.a(conn.c.obj)
                0x0000000008006f18                bt_conn_disconnect
 .text.bt_conn_le_conn_update
                0x0000000008006f84       0x4e zephyr/subsys/bluetooth/host/libsubsys__bluetooth__host.a(conn.c.obj)
                0x0000000008006f84                bt_conn_le_conn_update
 *fill*         0x0000000008006fd2        0x2 
 .text.bt_conn_le_param_update
                0x0000000008006fd4       0x6c zephyr/subsys/bluetooth/host/libsubsys__bluetooth__host.a(conn.c.obj)
                0x0000000008006fd4                bt_conn_le_param_update
 .text.le_conn_update
                0x0000000008007040       0x30 zephyr/subsys/bluetooth/host/libsubsys__bluetooth__host.a(conn.c.obj)
 .text.bt_conn_create_pdu
                0x0000000008007070       0x24 zephyr/subsys/bluetooth/host/libsubsys__bluetooth__host.a(conn.c.obj)
                0x0000000008007070                bt_conn_create_pdu
 .text.create_frag.isra.6
                0x0000000008007094       0x70 zephyr/subsys/bluetooth/host/libsubsys__bluetooth__host.a(conn.c.obj)
 .text.bt_conn_process_tx
                0x0000000008007104       0xb4 zephyr/subsys/bluetooth/host/libsubsys__bluetooth__host.a(conn.c.obj)
                0x0000000008007104                bt_conn_process_tx
 .text.bt_conn_get_id
                0x00000000080071b8       0x18 zephyr/subsys/bluetooth/host/libsubsys__bluetooth__host.a(conn.c.obj)
                0x00000000080071b8                bt_conn_get_id
 .text.bt_conn_lookup_id
                0x00000000080071d0       0x24 zephyr/subsys/bluetooth/host/libsubsys__bluetooth__host.a(conn.c.obj)
                0x00000000080071d0                bt_conn_lookup_id
 .text.bt_conn_init
                0x00000000080071f4       0x44 zephyr/subsys/bluetooth/host/libsubsys__bluetooth__host.a(conn.c.obj)
                0x00000000080071f4                bt_conn_init
 .text.l2cap_disconnected
                0x0000000008007238        0x2 zephyr/subsys/bluetooth/host/libsubsys__bluetooth__host.a(l2cap.c.obj)
 *fill*         0x000000000800723a        0x2 
 .text.l2cap_accept
                0x000000000800723c       0x1c zephyr/subsys/bluetooth/host/libsubsys__bluetooth__host.a(l2cap.c.obj)
 .text.l2cap_connected
                0x0000000008007258        0x2 zephyr/subsys/bluetooth/host/libsubsys__bluetooth__host.a(l2cap.c.obj)
 *fill*         0x000000000800725a        0x2 
 .text.bt_l2cap_le_fixed_chan_register
                0x000000000800725c       0x20 zephyr/subsys/bluetooth/host/libsubsys__bluetooth__host.a(l2cap.c.obj)
                0x000000000800725c                bt_l2cap_le_fixed_chan_register
 .text.bt_l2cap_chan_remove
                0x000000000800727c       0x44 zephyr/subsys/bluetooth/host/libsubsys__bluetooth__host.a(l2cap.c.obj)
                0x000000000800727c                bt_l2cap_chan_remove
 .text.bt_l2cap_chan_del
                0x00000000080072c0       0x22 zephyr/subsys/bluetooth/host/libsubsys__bluetooth__host.a(l2cap.c.obj)
                0x00000000080072c0                bt_l2cap_chan_del
 .text.l2cap_rtx_timeout
                0x00000000080072e2       0x1a zephyr/subsys/bluetooth/host/libsubsys__bluetooth__host.a(l2cap.c.obj)
 .text.bt_l2cap_connected
                0x00000000080072fc       0x74 zephyr/subsys/bluetooth/host/libsubsys__bluetooth__host.a(l2cap.c.obj)
                0x00000000080072fc                bt_l2cap_connected
 .text.bt_l2cap_disconnected
                0x0000000008007370       0x32 zephyr/subsys/bluetooth/host/libsubsys__bluetooth__host.a(l2cap.c.obj)
                0x0000000008007370                bt_l2cap_disconnected
 .text.bt_l2cap_create_pdu
                0x00000000080073a2        0x6 zephyr/subsys/bluetooth/host/libsubsys__bluetooth__host.a(l2cap.c.obj)
                0x00000000080073a2                bt_l2cap_create_pdu
 .text.bt_l2cap_send_cb
                0x00000000080073a8       0x2a zephyr/subsys/bluetooth/host/libsubsys__bluetooth__host.a(l2cap.c.obj)
                0x00000000080073a8                bt_l2cap_send_cb
 .text.l2cap_recv
                0x00000000080073d2       0x76 zephyr/subsys/bluetooth/host/libsubsys__bluetooth__host.a(l2cap.c.obj)
 .text.bt_l2cap_le_lookup_tx_cid
                0x0000000008007448       0x20 zephyr/subsys/bluetooth/host/libsubsys__bluetooth__host.a(l2cap.c.obj)
                0x0000000008007448                bt_l2cap_le_lookup_tx_cid
 .text.bt_l2cap_le_lookup_rx_cid
                0x0000000008007468       0x1e zephyr/subsys/bluetooth/host/libsubsys__bluetooth__host.a(l2cap.c.obj)
                0x0000000008007468                bt_l2cap_le_lookup_rx_cid
 .text.bt_l2cap_recv
                0x0000000008007486       0x3a zephyr/subsys/bluetooth/host/libsubsys__bluetooth__host.a(l2cap.c.obj)
                0x0000000008007486                bt_l2cap_recv
 .text.bt_l2cap_update_conn_param
                0x00000000080074c0       0x6c zephyr/subsys/bluetooth/host/libsubsys__bluetooth__host.a(l2cap.c.obj)
                0x00000000080074c0                bt_l2cap_update_conn_param
 .text.bt_l2cap_init
                0x000000000800752c        0xc zephyr/subsys/bluetooth/host/libsubsys__bluetooth__host.a(l2cap.c.obj)
                0x000000000800752c                bt_l2cap_init
 .text.att_exec_write_req
                0x0000000008007538        0x4 zephyr/subsys/bluetooth/host/libsubsys__bluetooth__host.a(att.c.obj)
 .text.att_op_get_type
                0x000000000800753c       0x30 zephyr/subsys/bluetooth/host/libsubsys__bluetooth__host.a(att.c.obj)
 .text.att_req_destroy
                0x000000000800756c       0x22 zephyr/subsys/bluetooth/host/libsubsys__bluetooth__host.a(att.c.obj)
 .text.att_notify
                0x000000000800758e        0xe zephyr/subsys/bluetooth/host/libsubsys__bluetooth__host.a(att.c.obj)
 .text.read_group_cb
                0x000000000800759c       0xce zephyr/subsys/bluetooth/host/libsubsys__bluetooth__host.a(att.c.obj)
 .text.find_info_cb
                0x000000000800766a       0x9a zephyr/subsys/bluetooth/host/libsubsys__bluetooth__host.a(att.c.obj)
 .text.find_type_cb
                0x0000000008007704       0xa6 zephyr/subsys/bluetooth/host/libsubsys__bluetooth__host.a(att.c.obj)
 *fill*         0x00000000080077aa        0x2 
 .text.bt_att_connected
                0x00000000080077ac       0x2c zephyr/subsys/bluetooth/host/libsubsys__bluetooth__host.a(att.c.obj)
 .text.check_perm.isra.3
                0x00000000080077d8       0x40 zephyr/subsys/bluetooth/host/libsubsys__bluetooth__host.a(att.c.obj)
 .text.read_type_cb
                0x0000000008007818       0xbc zephyr/subsys/bluetooth/host/libsubsys__bluetooth__host.a(att.c.obj)
 .text.uuid_create
                0x00000000080078d4       0x32 zephyr/subsys/bluetooth/host/libsubsys__bluetooth__host.a(att.c.obj)
 *fill*         0x0000000008007906        0x2 
 .text.att_req_sent
                0x0000000008007908       0x30 zephyr/subsys/bluetooth/host/libsubsys__bluetooth__host.a(att.c.obj)
 .text.bt_att_accept
                0x0000000008007938       0x48 zephyr/subsys/bluetooth/host/libsubsys__bluetooth__host.a(att.c.obj)
 .text.att_is_connected
                0x0000000008007980       0x22 zephyr/subsys/bluetooth/host/libsubsys__bluetooth__host.a(att.c.obj)
 .text.att_prepare_write_req
                0x00000000080079a2        0x4 zephyr/subsys/bluetooth/host/libsubsys__bluetooth__host.a(att.c.obj)
 .text.att_chan_get
                0x00000000080079a6       0x28 zephyr/subsys/bluetooth/host/libsubsys__bluetooth__host.a(att.c.obj)
 .text.att_pdu_sent
                0x00000000080079ce       0x12 zephyr/subsys/bluetooth/host/libsubsys__bluetooth__host.a(att.c.obj)
 .text.att_cfm_sent
                0x00000000080079e0       0x2e zephyr/subsys/bluetooth/host/libsubsys__bluetooth__host.a(att.c.obj)
 .text.att_rsp_sent
                0x0000000008007a0e       0x2e zephyr/subsys/bluetooth/host/libsubsys__bluetooth__host.a(att.c.obj)
 .text.write_cb
                0x0000000008007a3c       0x56 zephyr/subsys/bluetooth/host/libsubsys__bluetooth__host.a(att.c.obj)
 *fill*         0x0000000008007a92        0x2 
 .text.att_send_req
                0x0000000008007a94       0x78 zephyr/subsys/bluetooth/host/libsubsys__bluetooth__host.a(att.c.obj)
 .text.att_handle_rsp
                0x0000000008007b0c       0x76 zephyr/subsys/bluetooth/host/libsubsys__bluetooth__host.a(att.c.obj)
 .text.att_confirm
                0x0000000008007b82        0xa zephyr/subsys/bluetooth/host/libsubsys__bluetooth__host.a(att.c.obj)
 .text.att_handle_exec_write_rsp
                0x0000000008007b8c        0x4 zephyr/subsys/bluetooth/host/libsubsys__bluetooth__host.a(att.c.obj)
 .text.att_handle_prepare_write_rsp
                0x0000000008007b90        0x4 zephyr/subsys/bluetooth/host/libsubsys__bluetooth__host.a(att.c.obj)
 .text.att_handle_write_rsp
                0x0000000008007b94        0x4 zephyr/subsys/bluetooth/host/libsubsys__bluetooth__host.a(att.c.obj)
 .text.att_handle_read_mult_rsp
                0x0000000008007b98        0x4 zephyr/subsys/bluetooth/host/libsubsys__bluetooth__host.a(att.c.obj)
 .text.att_handle_read_blob_rsp
                0x0000000008007b9c        0x4 zephyr/subsys/bluetooth/host/libsubsys__bluetooth__host.a(att.c.obj)
 .text.att_handle_read_rsp
                0x0000000008007ba0        0x4 zephyr/subsys/bluetooth/host/libsubsys__bluetooth__host.a(att.c.obj)
 .text.att_handle_read_type_rsp
                0x0000000008007ba4        0x4 zephyr/subsys/bluetooth/host/libsubsys__bluetooth__host.a(att.c.obj)
 .text.att_handle_find_type_rsp
                0x0000000008007ba8        0x4 zephyr/subsys/bluetooth/host/libsubsys__bluetooth__host.a(att.c.obj)
 .text.att_handle_find_info_rsp
                0x0000000008007bac        0x4 zephyr/subsys/bluetooth/host/libsubsys__bluetooth__host.a(att.c.obj)
 .text.att_mtu_rsp
                0x0000000008007bb0       0x30 zephyr/subsys/bluetooth/host/libsubsys__bluetooth__host.a(att.c.obj)
 .text.att_error_rsp
                0x0000000008007be0       0x2c zephyr/subsys/bluetooth/host/libsubsys__bluetooth__host.a(att.c.obj)
 .text.att_reset
                0x0000000008007c0c       0x7c zephyr/subsys/bluetooth/host/libsubsys__bluetooth__host.a(att.c.obj)
 .text.bt_att_disconnected
                0x0000000008007c88       0x1c zephyr/subsys/bluetooth/host/libsubsys__bluetooth__host.a(att.c.obj)
 .text.att_timeout
                0x0000000008007ca4       0x1a zephyr/subsys/bluetooth/host/libsubsys__bluetooth__host.a(att.c.obj)
 .text.read_cb  0x0000000008007cbe       0x76 zephyr/subsys/bluetooth/host/libsubsys__bluetooth__host.a(att.c.obj)
 .text.bt_att_create_pdu
                0x0000000008007d34       0x32 zephyr/subsys/bluetooth/host/libsubsys__bluetooth__host.a(att.c.obj)
                0x0000000008007d34                bt_att_create_pdu
 *fill*         0x0000000008007d66        0x2 
 .text.att_indicate
                0x0000000008007d68       0x2c zephyr/subsys/bluetooth/host/libsubsys__bluetooth__host.a(att.c.obj)
 .text.att_mtu_req
                0x0000000008007d94       0x60 zephyr/subsys/bluetooth/host/libsubsys__bluetooth__host.a(att.c.obj)
 .text.send_err_rsp.part.9
                0x0000000008007df4       0x44 zephyr/subsys/bluetooth/host/libsubsys__bluetooth__host.a(att.c.obj)
 .text.bt_att_recv
                0x0000000008007e38       0xd4 zephyr/subsys/bluetooth/host/libsubsys__bluetooth__host.a(att.c.obj)
 .text.att_read_group_req
                0x0000000008007f0c      0x108 zephyr/subsys/bluetooth/host/libsubsys__bluetooth__host.a(att.c.obj)
 .text.att_read_mult_req
                0x0000000008008014       0x8c zephyr/subsys/bluetooth/host/libsubsys__bluetooth__host.a(att.c.obj)
 .text.att_read_rsp
                0x00000000080080a0       0x8c zephyr/subsys/bluetooth/host/libsubsys__bluetooth__host.a(att.c.obj)
 .text.att_read_blob_req
                0x000000000800812c       0x18 zephyr/subsys/bluetooth/host/libsubsys__bluetooth__host.a(att.c.obj)
 .text.att_read_req
                0x0000000008008144       0x18 zephyr/subsys/bluetooth/host/libsubsys__bluetooth__host.a(att.c.obj)
 .text.att_read_type_req
                0x000000000800815c       0xd4 zephyr/subsys/bluetooth/host/libsubsys__bluetooth__host.a(att.c.obj)
 .text.att_find_type_req
                0x0000000008008230       0xc4 zephyr/subsys/bluetooth/host/libsubsys__bluetooth__host.a(att.c.obj)
 .text.att_find_info_req
                0x00000000080082f4       0x78 zephyr/subsys/bluetooth/host/libsubsys__bluetooth__host.a(att.c.obj)
 .text.att_write_rsp.part.10.constprop.14
                0x000000000800836c       0xac zephyr/subsys/bluetooth/host/libsubsys__bluetooth__host.a(att.c.obj)
 .text.att_signed_write_cmd
                0x0000000008008418       0x62 zephyr/subsys/bluetooth/host/libsubsys__bluetooth__host.a(att.c.obj)
 .text.att_write_cmd
                0x000000000800847a       0x2c zephyr/subsys/bluetooth/host/libsubsys__bluetooth__host.a(att.c.obj)
 .text.att_write_req
                0x00000000080084a6       0x2c zephyr/subsys/bluetooth/host/libsubsys__bluetooth__host.a(att.c.obj)
 *fill*         0x00000000080084d2        0x2 
 .text.bt_att_init
                0x00000000080084d4       0x14 zephyr/subsys/bluetooth/host/libsubsys__bluetooth__host.a(att.c.obj)
                0x00000000080084d4                bt_att_init
 .text.bt_att_get_mtu
                0x00000000080084e8        0xe zephyr/subsys/bluetooth/host/libsubsys__bluetooth__host.a(att.c.obj)
                0x00000000080084e8                bt_att_get_mtu
 .text.bt_att_req_send
                0x00000000080084f6       0x4a zephyr/subsys/bluetooth/host/libsubsys__bluetooth__host.a(att.c.obj)
                0x00000000080084f6                bt_att_req_send
 .text.sc_ccc_cfg_changed
                0x0000000008008540        0x2 zephyr/subsys/bluetooth/host/libsubsys__bluetooth__host.a(gatt.c.obj)
 .text.find_next
                0x0000000008008542        0x6 zephyr/subsys/bluetooth/host/libsubsys__bluetooth__host.a(gatt.c.obj)
 .text.gatt_ccc_changed
                0x0000000008008548       0x32 zephyr/subsys/bluetooth/host/libsubsys__bluetooth__host.a(gatt.c.obj)
 .text.gatt_indicate_rsp
                0x000000000800857a       0x10 zephyr/subsys/bluetooth/host/libsubsys__bluetooth__host.a(gatt.c.obj)
 .text.bt_gatt_attr_write_ccc
                0x000000000800858a       0xbc zephyr/subsys/bluetooth/host/libsubsys__bluetooth__host.a(gatt.c.obj)
                0x000000000800858a                bt_gatt_attr_write_ccc
 .text.gatt_notify
                0x0000000008008646       0x56 zephyr/subsys/bluetooth/host/libsubsys__bluetooth__host.a(gatt.c.obj)
 .text.gatt_indicate
                0x000000000800869c       0x6c zephyr/subsys/bluetooth/host/libsubsys__bluetooth__host.a(gatt.c.obj)
 .text.gatt_register
                0x0000000008008708       0x6c zephyr/subsys/bluetooth/host/libsubsys__bluetooth__host.a(gatt.c.obj)
 .text.sc_indicate.constprop.17
                0x0000000008008774       0x6c zephyr/subsys/bluetooth/host/libsubsys__bluetooth__host.a(gatt.c.obj)
 .text.connected_cb
                0x00000000080087e0       0x70 zephyr/subsys/bluetooth/host/libsubsys__bluetooth__host.a(gatt.c.obj)
 .text.sc_indicate_rsp
                0x0000000008008850       0x40 zephyr/subsys/bluetooth/host/libsubsys__bluetooth__host.a(gatt.c.obj)
 .text.read_appearance
                0x0000000008008890       0x36 zephyr/subsys/bluetooth/host/libsubsys__bluetooth__host.a(gatt.c.obj)
 *fill*         0x00000000080088c6        0x2 
 .text.disconnected_cb
                0x00000000080088c8       0x9c zephyr/subsys/bluetooth/host/libsubsys__bluetooth__host.a(gatt.c.obj)
 .text.read_name
                0x0000000008008964       0x40 zephyr/subsys/bluetooth/host/libsubsys__bluetooth__host.a(gatt.c.obj)
 .text.bt_gatt_attr_read_ccc
                0x00000000080089a4       0x6e zephyr/subsys/bluetooth/host/libsubsys__bluetooth__host.a(gatt.c.obj)
                0x00000000080089a4                bt_gatt_attr_read_ccc
 .text.bt_gatt_attr_read_service
                0x0000000008008a12       0x52 zephyr/subsys/bluetooth/host/libsubsys__bluetooth__host.a(gatt.c.obj)
                0x0000000008008a12                bt_gatt_attr_read_service
 .text.notify_cb
                0x0000000008008a64       0xfc zephyr/subsys/bluetooth/host/libsubsys__bluetooth__host.a(gatt.c.obj)
 .text.bt_gatt_init
                0x0000000008008b60       0x2c zephyr/subsys/bluetooth/host/libsubsys__bluetooth__host.a(gatt.c.obj)
                0x0000000008008b60                bt_gatt_init
 .text.bt_gatt_service_register
                0x0000000008008b8c       0x62 zephyr/subsys/bluetooth/host/libsubsys__bluetooth__host.a(gatt.c.obj)
                0x0000000008008b8c                bt_gatt_service_register
 *fill*         0x0000000008008bee        0x2 
 .text.bt_gatt_service_unregister
                0x0000000008008bf0       0x58 zephyr/subsys/bluetooth/host/libsubsys__bluetooth__host.a(gatt.c.obj)
                0x0000000008008bf0                bt_gatt_service_unregister
 .text.bt_gatt_attr_read
                0x0000000008008c48       0x2e zephyr/subsys/bluetooth/host/libsubsys__bluetooth__host.a(gatt.c.obj)
                0x0000000008008c48                bt_gatt_attr_read
 *fill*         0x0000000008008c76        0x2 
 .text.bt_gatt_foreach_attr
                0x0000000008008c78       0x54 zephyr/subsys/bluetooth/host/libsubsys__bluetooth__host.a(gatt.c.obj)
                0x0000000008008c78                bt_gatt_foreach_attr
 .text.bt_gatt_indicate.part.8
                0x0000000008008ccc       0x2c zephyr/subsys/bluetooth/host/libsubsys__bluetooth__host.a(gatt.c.obj)
 .text.sc_process
                0x0000000008008cf8       0x80 zephyr/subsys/bluetooth/host/libsubsys__bluetooth__host.a(gatt.c.obj)
 .text.bt_gatt_attr_next
                0x0000000008008d78       0x24 zephyr/subsys/bluetooth/host/libsubsys__bluetooth__host.a(gatt.c.obj)
                0x0000000008008d78                bt_gatt_attr_next
 .text.bt_gatt_attr_read_chrc
                0x0000000008008d9c       0x70 zephyr/subsys/bluetooth/host/libsubsys__bluetooth__host.a(gatt.c.obj)
                0x0000000008008d9c                bt_gatt_attr_read_chrc
 .text.bt_gatt_notify
                0x0000000008008e0c       0x40 zephyr/subsys/bluetooth/host/libsubsys__bluetooth__host.a(gatt.c.obj)
                0x0000000008008e0c                bt_gatt_notify
 .text.bt_gatt_get_mtu
                0x0000000008008e4c        0x4 zephyr/subsys/bluetooth/host/libsubsys__bluetooth__host.a(gatt.c.obj)
                0x0000000008008e4c                bt_gatt_get_mtu
 .text.bt_gatt_connected
                0x0000000008008e50       0x14 zephyr/subsys/bluetooth/host/libsubsys__bluetooth__host.a(gatt.c.obj)
                0x0000000008008e50                bt_gatt_connected
 .text.bt_gatt_disconnected
                0x0000000008008e64       0x14 zephyr/subsys/bluetooth/host/libsubsys__bluetooth__host.a(gatt.c.obj)
                0x0000000008008e64                bt_gatt_disconnected
 .text.bt_smp_accept
                0x0000000008008e78       0x1c zephyr/subsys/bluetooth/host/libsubsys__bluetooth__host.a(smp_null.c.obj)
 .text.bt_smp_recv
                0x0000000008008e94       0x3a zephyr/subsys/bluetooth/host/libsubsys__bluetooth__host.a(smp_null.c.obj)
 .text.bt_smp_sign_verify
                0x0000000008008ece        0x6 zephyr/subsys/bluetooth/host/libsubsys__bluetooth__host.a(smp_null.c.obj)
                0x0000000008008ece                bt_smp_sign_verify
 .text.bt_smp_init
                0x0000000008008ed4       0x10 zephyr/subsys/bluetooth/host/libsubsys__bluetooth__host.a(smp_null.c.obj)
                0x0000000008008ed4                bt_smp_init
 .text.bt_mesh_provision
                0x0000000008008ee4       0x90 zephyr/subsys/bluetooth/host/mesh/libsubsys__bluetooth__host__mesh.a(main.c.obj)
                0x0000000008008ee4                bt_mesh_provision
 .text.bt_mesh_reset
                0x0000000008008f74       0x84 zephyr/subsys/bluetooth/host/mesh/libsubsys__bluetooth__host__mesh.a(main.c.obj)
                0x0000000008008f74                bt_mesh_reset
 .text.bt_mesh_is_provisioned
                0x0000000008008ff8        0xc zephyr/subsys/bluetooth/host/mesh/libsubsys__bluetooth__host__mesh.a(main.c.obj)
                0x0000000008008ff8                bt_mesh_is_provisioned
 .text.bt_mesh_prov_enable
                0x0000000008009004       0x34 zephyr/subsys/bluetooth/host/mesh/libsubsys__bluetooth__host__mesh.a(main.c.obj)
                0x0000000008009004                bt_mesh_prov_enable
 .text.bt_mesh_init
                0x0000000008009038       0x30 zephyr/subsys/bluetooth/host/mesh/libsubsys__bluetooth__host__mesh.a(main.c.obj)
                0x0000000008009038                bt_mesh_init
 .text.adv_alloc
                0x0000000008009068       0x10 zephyr/subsys/bluetooth/host/mesh/libsubsys__bluetooth__host__mesh.a(adv.c.obj)
 .text.bt_mesh_scan_cb
                0x0000000008009078       0x82 zephyr/subsys/bluetooth/host/mesh/libsubsys__bluetooth__host__mesh.a(adv.c.obj)
 *fill*         0x00000000080090fa        0x2 
 .text.adv_thread
                0x00000000080090fc      0x110 zephyr/subsys/bluetooth/host/mesh/libsubsys__bluetooth__host__mesh.a(adv.c.obj)
 .text.bt_mesh_adv_update
                0x000000000800920c        0xc zephyr/subsys/bluetooth/host/mesh/libsubsys__bluetooth__host__mesh.a(adv.c.obj)
                0x000000000800920c                bt_mesh_adv_update
 .text.bt_mesh_adv_create_from_pool
                0x0000000008009218       0x4a zephyr/subsys/bluetooth/host/mesh/libsubsys__bluetooth__host__mesh.a(adv.c.obj)
                0x0000000008009218                bt_mesh_adv_create_from_pool
 *fill*         0x0000000008009262        0x2 
 .text.bt_mesh_adv_create
                0x0000000008009264       0x20 zephyr/subsys/bluetooth/host/mesh/libsubsys__bluetooth__host__mesh.a(adv.c.obj)
                0x0000000008009264                bt_mesh_adv_create
 .text.bt_mesh_adv_send
                0x0000000008009284       0x30 zephyr/subsys/bluetooth/host/mesh/libsubsys__bluetooth__host__mesh.a(adv.c.obj)
                0x0000000008009284                bt_mesh_adv_send
 .text.bt_mesh_adv_init
                0x00000000080092b4       0x34 zephyr/subsys/bluetooth/host/mesh/libsubsys__bluetooth__host__mesh.a(adv.c.obj)
                0x00000000080092b4                bt_mesh_adv_init
 .text.bt_mesh_scan_enable
                0x00000000080092e8       0x24 zephyr/subsys/bluetooth/host/mesh/libsubsys__bluetooth__host__mesh.a(adv.c.obj)
                0x00000000080092e8                bt_mesh_scan_enable
 .text.bt_mesh_scan_disable
                0x000000000800930c        0x4 zephyr/subsys/bluetooth/host/mesh/libsubsys__bluetooth__host__mesh.a(adv.c.obj)
                0x000000000800930c                bt_mesh_scan_disable
 .text.beacon_complete
                0x0000000008009310        0xc zephyr/subsys/bluetooth/host/mesh/libsubsys__bluetooth__host__mesh.a(beacon.c.obj)
 .text.bt_mesh_beacon_ivu_initiator.part.1
                0x000000000800931c       0x18 zephyr/subsys/bluetooth/host/mesh/libsubsys__bluetooth__host__mesh.a(beacon.c.obj)
 .text.k_work_submit_to_queue.constprop.4
                0x0000000008009334       0x30 zephyr/subsys/bluetooth/host/mesh/libsubsys__bluetooth__host__mesh.a(beacon.c.obj)
 .text.bt_mesh_beacon_create
                0x0000000008009364       0x54 zephyr/subsys/bluetooth/host/mesh/libsubsys__bluetooth__host__mesh.a(beacon.c.obj)
                0x0000000008009364                bt_mesh_beacon_create
 .text.beacon_send
                0x00000000080093b8      0x158 zephyr/subsys/bluetooth/host/mesh/libsubsys__bluetooth__host__mesh.a(beacon.c.obj)
 .text.bt_mesh_beacon_recv
                0x0000000008009510      0x130 zephyr/subsys/bluetooth/host/mesh/libsubsys__bluetooth__host__mesh.a(beacon.c.obj)
                0x0000000008009510                bt_mesh_beacon_recv
 .text.bt_mesh_beacon_init
                0x0000000008009640       0x10 zephyr/subsys/bluetooth/host/mesh/libsubsys__bluetooth__host__mesh.a(beacon.c.obj)
                0x0000000008009640                bt_mesh_beacon_init
 .text.bt_mesh_beacon_ivu_initiator
                0x0000000008009650       0x18 zephyr/subsys/bluetooth/host/mesh/libsubsys__bluetooth__host__mesh.a(beacon.c.obj)
                0x0000000008009650                bt_mesh_beacon_ivu_initiator
 .text.bt_mesh_beacon_enable
                0x0000000008009668       0x54 zephyr/subsys/bluetooth/host/mesh/libsubsys__bluetooth__host__mesh.a(beacon.c.obj)
                0x0000000008009668                bt_mesh_beacon_enable
 .text.bt_mesh_beacon_disable
                0x00000000080096bc       0x18 zephyr/subsys/bluetooth/host/mesh/libsubsys__bluetooth__host__mesh.a(beacon.c.obj)
                0x00000000080096bc                bt_mesh_beacon_disable
 .text.auth_match
                0x00000000080096d4       0x46 zephyr/subsys/bluetooth/host/mesh/libsubsys__bluetooth__host__mesh.a(net.c.obj)
 *fill*         0x000000000800971a        0x2 
 .text.net_decrypt.isra.2
                0x000000000800971c      0x11c zephyr/subsys/bluetooth/host/mesh/libsubsys__bluetooth__host__mesh.a(net.c.obj)
 .text.bt_mesh_subnet_get
                0x0000000008009838       0x3c zephyr/subsys/bluetooth/host/mesh/libsubsys__bluetooth__host__mesh.a(net.c.obj)
                0x0000000008009838                bt_mesh_subnet_get
 .text.bt_mesh_net_keys_create
                0x0000000008009874       0x6c zephyr/subsys/bluetooth/host/mesh/libsubsys__bluetooth__host__mesh.a(net.c.obj)
                0x0000000008009874                bt_mesh_net_keys_create
 .text.friend_cred_set
                0x00000000080098e0       0x68 zephyr/subsys/bluetooth/host/mesh/libsubsys__bluetooth__host__mesh.a(net.c.obj)
                0x00000000080098e0                friend_cred_set
 .text.friend_cred_refresh
                0x0000000008009948       0x48 zephyr/subsys/bluetooth/host/mesh/libsubsys__bluetooth__host__mesh.a(net.c.obj)
                0x0000000008009948                friend_cred_refresh
 .text.friend_cred_update
                0x0000000008009990       0x4c zephyr/subsys/bluetooth/host/mesh/libsubsys__bluetooth__host__mesh.a(net.c.obj)
                0x0000000008009990                friend_cred_update
 .text.friend_cred_clear
                0x00000000080099dc       0x16 zephyr/subsys/bluetooth/host/mesh/libsubsys__bluetooth__host__mesh.a(net.c.obj)
                0x00000000080099dc                friend_cred_clear
 *fill*         0x00000000080099f2        0x2 
 .text.friend_cred_create
                0x00000000080099f4       0x78 zephyr/subsys/bluetooth/host/mesh/libsubsys__bluetooth__host__mesh.a(net.c.obj)
                0x00000000080099f4                friend_cred_create
 .text.friend_cred_del
                0x0000000008009a6c       0x40 zephyr/subsys/bluetooth/host/mesh/libsubsys__bluetooth__host__mesh.a(net.c.obj)
                0x0000000008009a6c                friend_cred_del
 .text.friend_cred_get
                0x0000000008009aac       0x78 zephyr/subsys/bluetooth/host/mesh/libsubsys__bluetooth__host__mesh.a(net.c.obj)
                0x0000000008009aac                friend_cred_get
 .text.bt_mesh_net_flags
                0x0000000008009b24       0x18 zephyr/subsys/bluetooth/host/mesh/libsubsys__bluetooth__host__mesh.a(net.c.obj)
                0x0000000008009b24                bt_mesh_net_flags
 .text.bt_mesh_net_beacon_update
                0x0000000008009b3c       0x34 zephyr/subsys/bluetooth/host/mesh/libsubsys__bluetooth__host__mesh.a(net.c.obj)
                0x0000000008009b3c                bt_mesh_net_beacon_update
 .text.bt_mesh_net_create
                0x0000000008009b70       0xa8 zephyr/subsys/bluetooth/host/mesh/libsubsys__bluetooth__host__mesh.a(net.c.obj)
                0x0000000008009b70                bt_mesh_net_create
 .text.bt_mesh_net_revoke_keys
                0x0000000008009c18       0x64 zephyr/subsys/bluetooth/host/mesh/libsubsys__bluetooth__host__mesh.a(net.c.obj)
                0x0000000008009c18                bt_mesh_net_revoke_keys
 .text.bt_mesh_kr_update
                0x0000000008009c7c       0x4a zephyr/subsys/bluetooth/host/mesh/libsubsys__bluetooth__host__mesh.a(net.c.obj)
                0x0000000008009c7c                bt_mesh_kr_update
 *fill*         0x0000000008009cc6        0x2 
 .text.bt_mesh_rpl_reset
                0x0000000008009cc8       0x30 zephyr/subsys/bluetooth/host/mesh/libsubsys__bluetooth__host__mesh.a(net.c.obj)
                0x0000000008009cc8                bt_mesh_rpl_reset
 .text.bt_mesh_net_sec_update
                0x0000000008009cf8       0x26 zephyr/subsys/bluetooth/host/mesh/libsubsys__bluetooth__host__mesh.a(net.c.obj)
                0x0000000008009cf8                bt_mesh_net_sec_update
 *fill*         0x0000000008009d1e        0x2 
 .text.bt_mesh_net_iv_update
                0x0000000008009d20      0x100 zephyr/subsys/bluetooth/host/mesh/libsubsys__bluetooth__host__mesh.a(net.c.obj)
                0x0000000008009d20                bt_mesh_net_iv_update
 .text.ivu_complete
                0x0000000008009e20       0x1c zephyr/subsys/bluetooth/host/mesh/libsubsys__bluetooth__host__mesh.a(net.c.obj)
 .text.bt_mesh_net_resend
                0x0000000008009e3c       0xe0 zephyr/subsys/bluetooth/host/mesh/libsubsys__bluetooth__host__mesh.a(net.c.obj)
                0x0000000008009e3c                bt_mesh_net_resend
 .text.bt_mesh_net_encode
                0x0000000008009f1c       0xf4 zephyr/subsys/bluetooth/host/mesh/libsubsys__bluetooth__host__mesh.a(net.c.obj)
                0x0000000008009f1c                bt_mesh_net_encode
 .text.bt_mesh_net_send
                0x000000000800a010       0xfc zephyr/subsys/bluetooth/host/mesh/libsubsys__bluetooth__host__mesh.a(net.c.obj)
                0x000000000800a010                bt_mesh_net_send
 .text.bt_mesh_subnet_find
                0x000000000800a10c       0xb8 zephyr/subsys/bluetooth/host/mesh/libsubsys__bluetooth__host__mesh.a(net.c.obj)
                0x000000000800a10c                bt_mesh_subnet_find
 .text.bt_mesh_net_decode
                0x000000000800a1c4      0x278 zephyr/subsys/bluetooth/host/mesh/libsubsys__bluetooth__host__mesh.a(net.c.obj)
                0x000000000800a1c4                bt_mesh_net_decode
 .text.bt_mesh_net_recv
                0x000000000800a43c      0x21c zephyr/subsys/bluetooth/host/mesh/libsubsys__bluetooth__host__mesh.a(net.c.obj)
                0x000000000800a43c                bt_mesh_net_recv
 .text.bt_mesh_net_local
                0x000000000800a658       0x28 zephyr/subsys/bluetooth/host/mesh/libsubsys__bluetooth__host__mesh.a(net.c.obj)
 .text.bt_mesh_net_init
                0x000000000800a680       0x3c zephyr/subsys/bluetooth/host/mesh/libsubsys__bluetooth__host__mesh.a(net.c.obj)
                0x000000000800a680                bt_mesh_net_init
 .text.seg_send_start
                0x000000000800a6bc        0xe zephyr/subsys/bluetooth/host/mesh/libsubsys__bluetooth__host__mesh.a(transport.c.obj)
 *fill*         0x000000000800a6ca        0x2 
 .text.is_replay
                0x000000000800a6cc       0x74 zephyr/subsys/bluetooth/host/mesh/libsubsys__bluetooth__host__mesh.a(transport.c.obj)
 .text.send_unseg
                0x000000000800a740       0x9a zephyr/subsys/bluetooth/host/mesh/libsubsys__bluetooth__host__mesh.a(transport.c.obj)
 *fill*         0x000000000800a7da        0x2 
 .text.sdu_recv
                0x000000000800a7dc      0x150 zephyr/subsys/bluetooth/host/mesh/libsubsys__bluetooth__host__mesh.a(transport.c.obj)
 .text.seg_rx_reset
                0x000000000800a92c       0x42 zephyr/subsys/bluetooth/host/mesh/libsubsys__bluetooth__host__mesh.a(transport.c.obj)
 *fill*         0x000000000800a96e        0x2 
 .text.seg_tx_reset
                0x000000000800a970       0x74 zephyr/subsys/bluetooth/host/mesh/libsubsys__bluetooth__host__mesh.a(transport.c.obj)
 .text.send_seg
                0x000000000800a9e4      0x1f0 zephyr/subsys/bluetooth/host/mesh/libsubsys__bluetooth__host__mesh.a(transport.c.obj)
 .text.seg_tx_complete
                0x000000000800abd4       0x1c zephyr/subsys/bluetooth/host/mesh/libsubsys__bluetooth__host__mesh.a(transport.c.obj)
 .text.seg_tx_send_unacked
                0x000000000800abf0       0x6c zephyr/subsys/bluetooth/host/mesh/libsubsys__bluetooth__host__mesh.a(transport.c.obj)
 .text.ctl_recv
                0x000000000800ac5c      0x1e0 zephyr/subsys/bluetooth/host/mesh/libsubsys__bluetooth__host__mesh.a(transport.c.obj)
 .text.seg_retransmit
                0x000000000800ae3c        0x6 zephyr/subsys/bluetooth/host/mesh/libsubsys__bluetooth__host__mesh.a(transport.c.obj)
 *fill*         0x000000000800ae42        0x2 
 .text.seg_sent
                0x000000000800ae44       0x10 zephyr/subsys/bluetooth/host/mesh/libsubsys__bluetooth__host__mesh.a(transport.c.obj)
 .text.bt_mesh_set_hb_sub_dst
                0x000000000800ae54        0xc zephyr/subsys/bluetooth/host/mesh/libsubsys__bluetooth__host__mesh.a(transport.c.obj)
                0x000000000800ae54                bt_mesh_set_hb_sub_dst
 .text.bt_mesh_tx_in_progress
                0x000000000800ae60       0x14 zephyr/subsys/bluetooth/host/mesh/libsubsys__bluetooth__host__mesh.a(transport.c.obj)
                0x000000000800ae60                bt_mesh_tx_in_progress
 .text.bt_mesh_app_key_find
                0x000000000800ae74       0x48 zephyr/subsys/bluetooth/host/mesh/libsubsys__bluetooth__host__mesh.a(transport.c.obj)
                0x000000000800ae74                bt_mesh_app_key_find
 .text.bt_mesh_trans_send
                0x000000000800aebc      0x12c zephyr/subsys/bluetooth/host/mesh/libsubsys__bluetooth__host__mesh.a(transport.c.obj)
                0x000000000800aebc                bt_mesh_trans_send
 .text.bt_mesh_ctl_send
                0x000000000800afe8       0x90 zephyr/subsys/bluetooth/host/mesh/libsubsys__bluetooth__host__mesh.a(transport.c.obj)
                0x000000000800afe8                bt_mesh_ctl_send
 .text.send_ack
                0x000000000800b078       0x9c zephyr/subsys/bluetooth/host/mesh/libsubsys__bluetooth__host__mesh.a(transport.c.obj)
 .text.seg_ack  0x000000000800b114       0xa0 zephyr/subsys/bluetooth/host/mesh/libsubsys__bluetooth__host__mesh.a(transport.c.obj)
 .text.bt_mesh_trans_recv
                0x000000000800b1b4      0x410 zephyr/subsys/bluetooth/host/mesh/libsubsys__bluetooth__host__mesh.a(transport.c.obj)
                0x000000000800b1b4                bt_mesh_trans_recv
 .text.bt_mesh_rx_reset
                0x000000000800b5c4       0x18 zephyr/subsys/bluetooth/host/mesh/libsubsys__bluetooth__host__mesh.a(transport.c.obj)
                0x000000000800b5c4                bt_mesh_rx_reset
 .text.bt_mesh_tx_reset
                0x000000000800b5dc        0xc zephyr/subsys/bluetooth/host/mesh/libsubsys__bluetooth__host__mesh.a(transport.c.obj)
                0x000000000800b5dc                bt_mesh_tx_reset
 .text.bt_mesh_trans_init
                0x000000000800b5e8       0x28 zephyr/subsys/bluetooth/host/mesh/libsubsys__bluetooth__host__mesh.a(transport.c.obj)
                0x000000000800b5e8                bt_mesh_trans_init
 .text.sys_put_be32
                0x000000000800b610       0x12 zephyr/subsys/bluetooth/host/mesh/libsubsys__bluetooth__host__mesh.a(crypto.c.obj)
 .text.bt_mesh_ccm_encrypt
                0x000000000800b622      0x28a zephyr/subsys/bluetooth/host/mesh/libsubsys__bluetooth__host__mesh.a(crypto.c.obj)
 .text.bt_mesh_ccm_decrypt
                0x000000000800b8ac      0x2a2 zephyr/subsys/bluetooth/host/mesh/libsubsys__bluetooth__host__mesh.a(crypto.c.obj)
 .text.bt_mesh_aes_cmac
                0x000000000800bb4e       0x44 zephyr/subsys/bluetooth/host/mesh/libsubsys__bluetooth__host__mesh.a(crypto.c.obj)
                0x000000000800bb4e                bt_mesh_aes_cmac
 .text.bt_mesh_aes_cmac_one
                0x000000000800bb92       0x14 zephyr/subsys/bluetooth/host/mesh/libsubsys__bluetooth__host__mesh.a(crypto.c.obj)
 .text.bt_mesh_s1
                0x000000000800bba6       0x2e zephyr/subsys/bluetooth/host/mesh/libsubsys__bluetooth__host__mesh.a(crypto.c.obj)
 .text.bt_mesh_k1
                0x000000000800bbd4       0x30 zephyr/subsys/bluetooth/host/mesh/libsubsys__bluetooth__host__mesh.a(crypto.c.obj)
                0x000000000800bbd4                bt_mesh_k1
 .text.bt_mesh_k2
                0x000000000800bc04       0xb0 zephyr/subsys/bluetooth/host/mesh/libsubsys__bluetooth__host__mesh.a(crypto.c.obj)
                0x000000000800bc04                bt_mesh_k2
 .text.bt_mesh_k3
                0x000000000800bcb4       0x5c zephyr/subsys/bluetooth/host/mesh/libsubsys__bluetooth__host__mesh.a(crypto.c.obj)
                0x000000000800bcb4                bt_mesh_k3
 .text.bt_mesh_k4
                0x000000000800bd10       0x50 zephyr/subsys/bluetooth/host/mesh/libsubsys__bluetooth__host__mesh.a(crypto.c.obj)
                0x000000000800bd10                bt_mesh_k4
 .text.bt_mesh_id128
                0x000000000800bd60       0x2c zephyr/subsys/bluetooth/host/mesh/libsubsys__bluetooth__host__mesh.a(crypto.c.obj)
                0x000000000800bd60                bt_mesh_id128
 .text.bt_mesh_net_obfuscate
                0x000000000800bd8c       0x50 zephyr/subsys/bluetooth/host/mesh/libsubsys__bluetooth__host__mesh.a(crypto.c.obj)
                0x000000000800bd8c                bt_mesh_net_obfuscate
 .text.bt_mesh_net_encrypt
                0x000000000800bddc       0x96 zephyr/subsys/bluetooth/host/mesh/libsubsys__bluetooth__host__mesh.a(crypto.c.obj)
                0x000000000800bddc                bt_mesh_net_encrypt
 .text.bt_mesh_net_decrypt
                0x000000000800be72       0x8e zephyr/subsys/bluetooth/host/mesh/libsubsys__bluetooth__host__mesh.a(crypto.c.obj)
                0x000000000800be72                bt_mesh_net_decrypt
 .text.bt_mesh_app_encrypt
                0x000000000800bf00       0x8a zephyr/subsys/bluetooth/host/mesh/libsubsys__bluetooth__host__mesh.a(crypto.c.obj)
                0x000000000800bf00                bt_mesh_app_encrypt
 .text.bt_mesh_app_decrypt
                0x000000000800bf8a       0x90 zephyr/subsys/bluetooth/host/mesh/libsubsys__bluetooth__host__mesh.a(crypto.c.obj)
                0x000000000800bf8a                bt_mesh_app_decrypt
 *fill*         0x000000000800c01a        0x2 
 .text.bt_mesh_fcs_calc
                0x000000000800c01c       0x20 zephyr/subsys/bluetooth/host/mesh/libsubsys__bluetooth__host__mesh.a(crypto.c.obj)
                0x000000000800c01c                bt_mesh_fcs_calc
 .text.bt_mesh_fcs_check
                0x000000000800c03c       0x2c zephyr/subsys/bluetooth/host/mesh/libsubsys__bluetooth__host__mesh.a(crypto.c.obj)
                0x000000000800c03c                bt_mesh_fcs_check
 .text.bt_mesh_virtual_addr
                0x000000000800c068       0x48 zephyr/subsys/bluetooth/host/mesh/libsubsys__bluetooth__host__mesh.a(crypto.c.obj)
                0x000000000800c068                bt_mesh_virtual_addr
 .text.bt_mesh_prov_conf_salt
                0x000000000800c0b0       0x22 zephyr/subsys/bluetooth/host/mesh/libsubsys__bluetooth__host__mesh.a(crypto.c.obj)
                0x000000000800c0b0                bt_mesh_prov_conf_salt
 *fill*         0x000000000800c0d2        0x2 
 .text.bt_mesh_prov_conf_key
                0x000000000800c0d4       0x18 zephyr/subsys/bluetooth/host/mesh/libsubsys__bluetooth__host__mesh.a(crypto.c.obj)
                0x000000000800c0d4                bt_mesh_prov_conf_key
 .text.bt_mesh_prov_conf
                0x000000000800c0ec       0x1a zephyr/subsys/bluetooth/host/mesh/libsubsys__bluetooth__host__mesh.a(crypto.c.obj)
                0x000000000800c0ec                bt_mesh_prov_conf
 .text.bt_mesh_prov_decrypt
                0x000000000800c106       0x18 zephyr/subsys/bluetooth/host/mesh/libsubsys__bluetooth__host__mesh.a(crypto.c.obj)
                0x000000000800c106                bt_mesh_prov_decrypt
 .text.bt_mesh_beacon_auth
                0x000000000800c11e       0x46 zephyr/subsys/bluetooth/host/mesh/libsubsys__bluetooth__host__mesh.a(crypto.c.obj)
                0x000000000800c11e                bt_mesh_beacon_auth
 .text.mod_init
                0x000000000800c164       0x44 zephyr/subsys/bluetooth/host/mesh/libsubsys__bluetooth__host__mesh.a(access.c.obj)
 .text.bt_mesh_model_foreach
                0x000000000800c1a8       0x74 zephyr/subsys/bluetooth/host/mesh/libsubsys__bluetooth__host__mesh.a(access.c.obj)
                0x000000000800c1a8                bt_mesh_model_foreach
 .text.bt_mesh_model_pub_period_get
                0x000000000800c21c       0x48 zephyr/subsys/bluetooth/host/mesh/libsubsys__bluetooth__host__mesh.a(access.c.obj)
                0x000000000800c21c                bt_mesh_model_pub_period_get
 .text.publish_sent
                0x000000000800c264       0x4c zephyr/subsys/bluetooth/host/mesh/libsubsys__bluetooth__host__mesh.a(access.c.obj)
 .text.bt_mesh_comp_register
                0x000000000800c2b0       0x24 zephyr/subsys/bluetooth/host/mesh/libsubsys__bluetooth__host__mesh.a(access.c.obj)
                0x000000000800c2b0                bt_mesh_comp_register
 .text.bt_mesh_comp_provision
                0x000000000800c2d4       0x2c zephyr/subsys/bluetooth/host/mesh/libsubsys__bluetooth__host__mesh.a(access.c.obj)
                0x000000000800c2d4                bt_mesh_comp_provision
 .text.bt_mesh_comp_unprovision
                0x000000000800c300       0x14 zephyr/subsys/bluetooth/host/mesh/libsubsys__bluetooth__host__mesh.a(access.c.obj)
                0x000000000800c300                bt_mesh_comp_unprovision
 .text.bt_mesh_primary_addr
                0x000000000800c314        0xc zephyr/subsys/bluetooth/host/mesh/libsubsys__bluetooth__host__mesh.a(access.c.obj)
                0x000000000800c314                bt_mesh_primary_addr
 .text.bt_mesh_model_find_group
                0x000000000800c320       0x1e zephyr/subsys/bluetooth/host/mesh/libsubsys__bluetooth__host__mesh.a(access.c.obj)
                0x000000000800c320                bt_mesh_model_find_group
 .text.bt_mesh_elem_find_group
                0x000000000800c33e       0x54 zephyr/subsys/bluetooth/host/mesh/libsubsys__bluetooth__host__mesh.a(access.c.obj)
 *fill*         0x000000000800c392        0x2 
 .text.bt_mesh_elem_find
                0x000000000800c394       0x48 zephyr/subsys/bluetooth/host/mesh/libsubsys__bluetooth__host__mesh.a(access.c.obj)
                0x000000000800c394                bt_mesh_elem_find
 .text.bt_mesh_elem_count
                0x000000000800c3dc        0xc zephyr/subsys/bluetooth/host/mesh/libsubsys__bluetooth__host__mesh.a(access.c.obj)
                0x000000000800c3dc                bt_mesh_elem_count
 .text.bt_mesh_fixed_group_match
                0x000000000800c3e8       0x2e zephyr/subsys/bluetooth/host/mesh/libsubsys__bluetooth__host__mesh.a(access.c.obj)
                0x000000000800c3e8                bt_mesh_fixed_group_match
 *fill*         0x000000000800c416        0x2 
 .text.bt_mesh_model_recv
                0x000000000800c418      0x11c zephyr/subsys/bluetooth/host/mesh/libsubsys__bluetooth__host__mesh.a(access.c.obj)
                0x000000000800c418                bt_mesh_model_recv
 .text.bt_mesh_model_msg_init
                0x000000000800c534       0x44 zephyr/subsys/bluetooth/host/mesh/libsubsys__bluetooth__host__mesh.a(access.c.obj)
                0x000000000800c534                bt_mesh_model_msg_init
 .text.bt_mesh_model_send
                0x000000000800c578       0x70 zephyr/subsys/bluetooth/host/mesh/libsubsys__bluetooth__host__mesh.a(access.c.obj)
                0x000000000800c578                bt_mesh_model_send
 .text.bt_mesh_model_publish
                0x000000000800c5e8      0x110 zephyr/subsys/bluetooth/host/mesh/libsubsys__bluetooth__host__mesh.a(access.c.obj)
                0x000000000800c5e8                bt_mesh_model_publish
 .text.mod_publish
                0x000000000800c6f8      0x114 zephyr/subsys/bluetooth/host/mesh/libsubsys__bluetooth__host__mesh.a(access.c.obj)
 .text.bt_mesh_model_find_vnd
                0x000000000800c80c       0x2e zephyr/subsys/bluetooth/host/mesh/libsubsys__bluetooth__host__mesh.a(access.c.obj)
                0x000000000800c80c                bt_mesh_model_find_vnd
 .text.bt_mesh_model_find
                0x000000000800c83a       0x28 zephyr/subsys/bluetooth/host/mesh/libsubsys__bluetooth__host__mesh.a(access.c.obj)
                0x000000000800c83a                bt_mesh_model_find
 *fill*         0x000000000800c862        0x2 
 .text.bt_mesh_comp_get
                0x000000000800c864        0xc zephyr/subsys/bluetooth/host/mesh/libsubsys__bluetooth__host__mesh.a(access.c.obj)
                0x000000000800c864                bt_mesh_comp_get
 .text.key_idx_pack
                0x000000000800c870       0x1e zephyr/subsys/bluetooth/host/mesh/libsubsys__bluetooth__host__mesh.a(cfg_srv.c.obj)
 .text.send_krp_status
                0x000000000800c88e       0x52 zephyr/subsys/bluetooth/host/mesh/libsubsys__bluetooth__host__mesh.a(cfg_srv.c.obj)
 .text.lpn_timeout_get
                0x000000000800c8e0       0x64 zephyr/subsys/bluetooth/host/mesh/libsubsys__bluetooth__host__mesh.a(cfg_srv.c.obj)
 .text.send_friend_status
                0x000000000800c944       0x3e zephyr/subsys/bluetooth/host/mesh/libsubsys__bluetooth__host__mesh.a(cfg_srv.c.obj)
 .text.friend_get
                0x000000000800c982        0x4 zephyr/subsys/bluetooth/host/mesh/libsubsys__bluetooth__host__mesh.a(cfg_srv.c.obj)
 *fill*         0x000000000800c986        0x2 
 .text.net_key_get
                0x000000000800c988       0x68 zephyr/subsys/bluetooth/host/mesh/libsubsys__bluetooth__host__mesh.a(cfg_srv.c.obj)
 .text.send_net_key_status
                0x000000000800c9f0       0x48 zephyr/subsys/bluetooth/host/mesh/libsubsys__bluetooth__host__mesh.a(cfg_srv.c.obj)
 .text.krp_get  0x000000000800ca38       0x34 zephyr/subsys/bluetooth/host/mesh/libsubsys__bluetooth__host__mesh.a(cfg_srv.c.obj)
 .text.node_identity_get
                0x000000000800ca6c       0x74 zephyr/subsys/bluetooth/host/mesh/libsubsys__bluetooth__host__mesh.a(cfg_srv.c.obj)
 .text.app_key_get
                0x000000000800cae0       0xac zephyr/subsys/bluetooth/host/mesh/libsubsys__bluetooth__host__mesh.a(cfg_srv.c.obj)
 .text.hb_pub_send_status
                0x000000000800cb8c       0xac zephyr/subsys/bluetooth/host/mesh/libsubsys__bluetooth__host__mesh.a(cfg_srv.c.obj)
 .text.heartbeat_pub_get
                0x000000000800cc38        0x8 zephyr/subsys/bluetooth/host/mesh/libsubsys__bluetooth__host__mesh.a(cfg_srv.c.obj)
 .text.send_mod_sub_status
                0x000000000800cc40       0x78 zephyr/subsys/bluetooth/host/mesh/libsubsys__bluetooth__host__mesh.a(cfg_srv.c.obj)
 .text.krp_set  0x000000000800ccb8       0x8a zephyr/subsys/bluetooth/host/mesh/libsubsys__bluetooth__host__mesh.a(cfg_srv.c.obj)
 .text.node_reset
                0x000000000800cd42       0x38 zephyr/subsys/bluetooth/host/mesh/libsubsys__bluetooth__host__mesh.a(cfg_srv.c.obj)
 .text.mod_sub_get
                0x000000000800cd7a       0xa2 zephyr/subsys/bluetooth/host/mesh/libsubsys__bluetooth__host__mesh.a(cfg_srv.c.obj)
 .text.mod_sub_get_vnd
                0x000000000800ce1c       0xbc zephyr/subsys/bluetooth/host/mesh/libsubsys__bluetooth__host__mesh.a(cfg_srv.c.obj)
 .text._app_key_del
                0x000000000800ced8       0x28 zephyr/subsys/bluetooth/host/mesh/libsubsys__bluetooth__host__mesh.a(cfg_srv.c.obj)
 .text.net_key_update
                0x000000000800cf00       0x9a zephyr/subsys/bluetooth/host/mesh/libsubsys__bluetooth__host__mesh.a(cfg_srv.c.obj)
 *fill*         0x000000000800cf9a        0x2 
 .text.net_key_add
                0x000000000800cf9c       0xa4 zephyr/subsys/bluetooth/host/mesh/libsubsys__bluetooth__host__mesh.a(cfg_srv.c.obj)
 .text.key_idx_unpack
                0x000000000800d040       0x26 zephyr/subsys/bluetooth/host/mesh/libsubsys__bluetooth__host__mesh.a(cfg_srv.c.obj)
 .text.app_key_del
                0x000000000800d066       0x86 zephyr/subsys/bluetooth/host/mesh/libsubsys__bluetooth__host__mesh.a(cfg_srv.c.obj)
 .text.app_key_set
                0x000000000800d0ec       0xec zephyr/subsys/bluetooth/host/mesh/libsubsys__bluetooth__host__mesh.a(cfg_srv.c.obj)
 .text.app_key_update
                0x000000000800d1d8       0x68 zephyr/subsys/bluetooth/host/mesh/libsubsys__bluetooth__host__mesh.a(cfg_srv.c.obj)
 .text.app_key_add
                0x000000000800d240       0x68 zephyr/subsys/bluetooth/host/mesh/libsubsys__bluetooth__host__mesh.a(cfg_srv.c.obj)
 .text.create_mod_app_status.isra.4
                0x000000000800d2a8       0x54 zephyr/subsys/bluetooth/host/mesh/libsubsys__bluetooth__host__mesh.a(cfg_srv.c.obj)
 .text.send_mod_pub_status.isra.6
                0x000000000800d2fc       0xc6 zephyr/subsys/bluetooth/host/mesh/libsubsys__bluetooth__host__mesh.a(cfg_srv.c.obj)
 .text.get_model
                0x000000000800d3c2       0x42 zephyr/subsys/bluetooth/host/mesh/libsubsys__bluetooth__host__mesh.a(cfg_srv.c.obj)
 .text.mod_app_get
                0x000000000800d404       0xb2 zephyr/subsys/bluetooth/host/mesh/libsubsys__bluetooth__host__mesh.a(cfg_srv.c.obj)
 .text.mod_sub_del_all
                0x000000000800d4b6       0x68 zephyr/subsys/bluetooth/host/mesh/libsubsys__bluetooth__host__mesh.a(cfg_srv.c.obj)
 .text.mod_sub_overwrite
                0x000000000800d51e       0x7e zephyr/subsys/bluetooth/host/mesh/libsubsys__bluetooth__host__mesh.a(cfg_srv.c.obj)
 .text.mod_pub_get
                0x000000000800d59c       0x6e zephyr/subsys/bluetooth/host/mesh/libsubsys__bluetooth__host__mesh.a(cfg_srv.c.obj)
 *fill*         0x000000000800d60a        0x2 
 .text.mod_sub_va_del
                0x000000000800d60c       0xc4 zephyr/subsys/bluetooth/host/mesh/libsubsys__bluetooth__host__mesh.a(cfg_srv.c.obj)
 .text.mod_sub_del
                0x000000000800d6d0       0x7e zephyr/subsys/bluetooth/host/mesh/libsubsys__bluetooth__host__mesh.a(cfg_srv.c.obj)
 .text.mod_sub_add
                0x000000000800d74e       0x96 zephyr/subsys/bluetooth/host/mesh/libsubsys__bluetooth__host__mesh.a(cfg_srv.c.obj)
 .text._mod_pub_set
                0x000000000800d7e4       0xb8 zephyr/subsys/bluetooth/host/mesh/libsubsys__bluetooth__host__mesh.a(cfg_srv.c.obj)
 .text.mod_pub_set
                0x000000000800d89c       0xb2 zephyr/subsys/bluetooth/host/mesh/libsubsys__bluetooth__host__mesh.a(cfg_srv.c.obj)
 *fill*         0x000000000800d94e        0x2 
 .text.mod_unbind
                0x000000000800d950       0x6c zephyr/subsys/bluetooth/host/mesh/libsubsys__bluetooth__host__mesh.a(cfg_srv.c.obj)
 .text.mod_app_unbind
                0x000000000800d9bc       0x84 zephyr/subsys/bluetooth/host/mesh/libsubsys__bluetooth__host__mesh.a(cfg_srv.c.obj)
 .text._mod_unbind
                0x000000000800da40        0x8 zephyr/subsys/bluetooth/host/mesh/libsubsys__bluetooth__host__mesh.a(cfg_srv.c.obj)
 .text.dev_comp_data_get
                0x000000000800da48       0xfe zephyr/subsys/bluetooth/host/mesh/libsubsys__bluetooth__host__mesh.a(cfg_srv.c.obj)
 *fill*         0x000000000800db46        0x2 
 .text.mod_app_bind
                0x000000000800db48       0xd0 zephyr/subsys/bluetooth/host/mesh/libsubsys__bluetooth__host__mesh.a(cfg_srv.c.obj)
 .text.va_add   0x000000000800dc18       0x84 zephyr/subsys/bluetooth/host/mesh/libsubsys__bluetooth__host__mesh.a(cfg_srv.c.obj)
 .text.mod_sub_va_overwrite
                0x000000000800dc9c       0x96 zephyr/subsys/bluetooth/host/mesh/libsubsys__bluetooth__host__mesh.a(cfg_srv.c.obj)
 .text.mod_pub_va_set
                0x000000000800dd32       0xd0 zephyr/subsys/bluetooth/host/mesh/libsubsys__bluetooth__host__mesh.a(cfg_srv.c.obj)
 .text.mod_sub_va_add
                0x000000000800de02       0xb2 zephyr/subsys/bluetooth/host/mesh/libsubsys__bluetooth__host__mesh.a(cfg_srv.c.obj)
 .text.hb_sub_send_status.constprop.12
                0x000000000800deb4       0xf0 zephyr/subsys/bluetooth/host/mesh/libsubsys__bluetooth__host__mesh.a(cfg_srv.c.obj)
 .text.heartbeat_sub_get
                0x000000000800dfa4        0x4 zephyr/subsys/bluetooth/host/mesh/libsubsys__bluetooth__host__mesh.a(cfg_srv.c.obj)
 .text.heartbeat_sub_set
                0x000000000800dfa8       0xe2 zephyr/subsys/bluetooth/host/mesh/libsubsys__bluetooth__host__mesh.a(cfg_srv.c.obj)
 *fill*         0x000000000800e08a        0x2 
 .text.net_key_del
                0x000000000800e08c       0x9c zephyr/subsys/bluetooth/host/mesh/libsubsys__bluetooth__host__mesh.a(cfg_srv.c.obj)
 .text.heartbeat_pub_set
                0x000000000800e128      0x108 zephyr/subsys/bluetooth/host/mesh/libsubsys__bluetooth__host__mesh.a(cfg_srv.c.obj)
 .text.bt_mesh_cfg_srv_init
                0x000000000800e230       0x4c zephyr/subsys/bluetooth/host/mesh/libsubsys__bluetooth__host__mesh.a(cfg_srv.c.obj)
                0x000000000800e230                bt_mesh_cfg_srv_init
 .text.bt_mesh_cfg_reset
                0x000000000800e27c       0xa8 zephyr/subsys/bluetooth/host/mesh/libsubsys__bluetooth__host__mesh.a(cfg_srv.c.obj)
                0x000000000800e27c                bt_mesh_cfg_reset
 .text.bt_mesh_heartbeat
                0x000000000800e324       0x6c zephyr/subsys/bluetooth/host/mesh/libsubsys__bluetooth__host__mesh.a(cfg_srv.c.obj)
                0x000000000800e324                bt_mesh_heartbeat
 .text.bt_mesh_net_transmit_get
                0x000000000800e390       0x10 zephyr/subsys/bluetooth/host/mesh/libsubsys__bluetooth__host__mesh.a(cfg_srv.c.obj)
                0x000000000800e390                bt_mesh_net_transmit_get
 .text.net_transmit_set
                0x000000000800e3a0       0x4c zephyr/subsys/bluetooth/host/mesh/libsubsys__bluetooth__host__mesh.a(cfg_srv.c.obj)
 .text.net_transmit_get
                0x000000000800e3ec       0x40 zephyr/subsys/bluetooth/host/mesh/libsubsys__bluetooth__host__mesh.a(cfg_srv.c.obj)
 .text.bt_mesh_relay_get
                0x000000000800e42c       0x14 zephyr/subsys/bluetooth/host/mesh/libsubsys__bluetooth__host__mesh.a(cfg_srv.c.obj)
                0x000000000800e42c                bt_mesh_relay_get
 .text.bt_mesh_friend_get
                0x000000000800e440       0x14 zephyr/subsys/bluetooth/host/mesh/libsubsys__bluetooth__host__mesh.a(cfg_srv.c.obj)
                0x000000000800e440                bt_mesh_friend_get
 .text.bt_mesh_relay_retransmit_get
                0x000000000800e454       0x10 zephyr/subsys/bluetooth/host/mesh/libsubsys__bluetooth__host__mesh.a(cfg_srv.c.obj)
                0x000000000800e454                bt_mesh_relay_retransmit_get
 .text.relay_get
                0x000000000800e464       0x4e zephyr/subsys/bluetooth/host/mesh/libsubsys__bluetooth__host__mesh.a(cfg_srv.c.obj)
 *fill*         0x000000000800e4b2        0x2 
 .text.bt_mesh_beacon_get
                0x000000000800e4b4       0x10 zephyr/subsys/bluetooth/host/mesh/libsubsys__bluetooth__host__mesh.a(cfg_srv.c.obj)
                0x000000000800e4b4                bt_mesh_beacon_get
 .text.beacon_set
                0x000000000800e4c4       0x62 zephyr/subsys/bluetooth/host/mesh/libsubsys__bluetooth__host__mesh.a(cfg_srv.c.obj)
 .text.beacon_get
                0x000000000800e526       0x40 zephyr/subsys/bluetooth/host/mesh/libsubsys__bluetooth__host__mesh.a(cfg_srv.c.obj)
 *fill*         0x000000000800e566        0x2 
 .text.bt_mesh_gatt_proxy_get
                0x000000000800e568       0x14 zephyr/subsys/bluetooth/host/mesh/libsubsys__bluetooth__host__mesh.a(cfg_srv.c.obj)
                0x000000000800e568                bt_mesh_gatt_proxy_get
 .text.hb_send  0x000000000800e57c       0x90 zephyr/subsys/bluetooth/host/mesh/libsubsys__bluetooth__host__mesh.a(cfg_srv.c.obj)
 .text.friend_set
                0x000000000800e60c       0x46 zephyr/subsys/bluetooth/host/mesh/libsubsys__bluetooth__host__mesh.a(cfg_srv.c.obj)
 .text.relay_set
                0x000000000800e652       0x86 zephyr/subsys/bluetooth/host/mesh/libsubsys__bluetooth__host__mesh.a(cfg_srv.c.obj)
 .text.hb_publish
                0x000000000800e6d8       0x6c zephyr/subsys/bluetooth/host/mesh/libsubsys__bluetooth__host__mesh.a(cfg_srv.c.obj)
 .text.node_identity_set
                0x000000000800e744       0xa6 zephyr/subsys/bluetooth/host/mesh/libsubsys__bluetooth__host__mesh.a(cfg_srv.c.obj)
 .text.send_gatt_proxy_status
                0x000000000800e7ea       0x40 zephyr/subsys/bluetooth/host/mesh/libsubsys__bluetooth__host__mesh.a(cfg_srv.c.obj)
 .text.gatt_proxy_get
                0x000000000800e82a        0x4 zephyr/subsys/bluetooth/host/mesh/libsubsys__bluetooth__host__mesh.a(cfg_srv.c.obj)
 *fill*         0x000000000800e82e        0x2 
 .text.gatt_proxy_set
                0x000000000800e830       0x80 zephyr/subsys/bluetooth/host/mesh/libsubsys__bluetooth__host__mesh.a(cfg_srv.c.obj)
 .text.bt_mesh_default_ttl_get
                0x000000000800e8b0       0x14 zephyr/subsys/bluetooth/host/mesh/libsubsys__bluetooth__host__mesh.a(cfg_srv.c.obj)
                0x000000000800e8b0                bt_mesh_default_ttl_get
 .text.default_ttl_set
                0x000000000800e8c4       0x54 zephyr/subsys/bluetooth/host/mesh/libsubsys__bluetooth__host__mesh.a(cfg_srv.c.obj)
 .text.default_ttl_get
                0x000000000800e918       0x40 zephyr/subsys/bluetooth/host/mesh/libsubsys__bluetooth__host__mesh.a(cfg_srv.c.obj)
 .text.bt_mesh_label_uuid_get
                0x000000000800e958       0x30 zephyr/subsys/bluetooth/host/mesh/libsubsys__bluetooth__host__mesh.a(cfg_srv.c.obj)
                0x000000000800e958                bt_mesh_label_uuid_get
 .text.attention_off
                0x000000000800e988       0x12 zephyr/subsys/bluetooth/host/mesh/libsubsys__bluetooth__host__mesh.a(health_srv.c.obj)
 .text.health_period_set_unrel
                0x000000000800e99a       0x1a zephyr/subsys/bluetooth/host/mesh/libsubsys__bluetooth__host__mesh.a(health_srv.c.obj)
 .text.send_health_period_status
                0x000000000800e9b4       0x42 zephyr/subsys/bluetooth/host/mesh/libsubsys__bluetooth__host__mesh.a(health_srv.c.obj)
 .text.health_period_set
                0x000000000800e9f6       0x16 zephyr/subsys/bluetooth/host/mesh/libsubsys__bluetooth__host__mesh.a(health_srv.c.obj)
 .text.health_period_get
                0x000000000800ea0c        0x4 zephyr/subsys/bluetooth/host/mesh/libsubsys__bluetooth__host__mesh.a(health_srv.c.obj)
 .text.send_attention_status
                0x000000000800ea10       0x4e zephyr/subsys/bluetooth/host/mesh/libsubsys__bluetooth__host__mesh.a(health_srv.c.obj)
 .text.attention_get
                0x000000000800ea5e        0x4 zephyr/subsys/bluetooth/host/mesh/libsubsys__bluetooth__host__mesh.a(health_srv.c.obj)
 .text.health_fault_test_unrel
                0x000000000800ea62       0x30 zephyr/subsys/bluetooth/host/mesh/libsubsys__bluetooth__host__mesh.a(health_srv.c.obj)
 .text.health_fault_clear_unrel
                0x000000000800ea92       0x20 zephyr/subsys/bluetooth/host/mesh/libsubsys__bluetooth__host__mesh.a(health_srv.c.obj)
 .text.health_get_registered
                0x000000000800eab2       0x70 zephyr/subsys/bluetooth/host/mesh/libsubsys__bluetooth__host__mesh.a(health_srv.c.obj)
 .text.health_fault_test
                0x000000000800eb22       0x68 zephyr/subsys/bluetooth/host/mesh/libsubsys__bluetooth__host__mesh.a(health_srv.c.obj)
 .text.health_fault_clear
                0x000000000800eb8a       0x4e zephyr/subsys/bluetooth/host/mesh/libsubsys__bluetooth__host__mesh.a(health_srv.c.obj)
 .text.health_fault_get
                0x000000000800ebd8       0x3c zephyr/subsys/bluetooth/host/mesh/libsubsys__bluetooth__host__mesh.a(health_srv.c.obj)
 .text.health_pub_update
                0x000000000800ec14       0xa2 zephyr/subsys/bluetooth/host/mesh/libsubsys__bluetooth__host__mesh.a(health_srv.c.obj)
 *fill*         0x000000000800ecb6        0x2 
 .text.bt_mesh_health_srv_init
                0x000000000800ecb8       0x40 zephyr/subsys/bluetooth/host/mesh/libsubsys__bluetooth__host__mesh.a(health_srv.c.obj)
                0x000000000800ecb8                bt_mesh_health_srv_init
 .text.bt_mesh_attention
                0x000000000800ecf8       0x5c zephyr/subsys/bluetooth/host/mesh/libsubsys__bluetooth__host__mesh.a(health_srv.c.obj)
                0x000000000800ecf8                bt_mesh_attention
 .text.attention_set_unrel
                0x000000000800ed54       0x16 zephyr/subsys/bluetooth/host/mesh/libsubsys__bluetooth__host__mesh.a(health_srv.c.obj)
 .text.attention_set
                0x000000000800ed6a       0x16 zephyr/subsys/bluetooth/host/mesh/libsubsys__bluetooth__host__mesh.a(health_srv.c.obj)
 .text.net_buf_user_data
                0x000000000800ed80        0xc zephyr/subsys/bluetooth/host/mesh/libsubsys__bluetooth__host__mesh.a(friend.c.obj)
 .text.adv_alloc
                0x000000000800ed8c       0x10 zephyr/subsys/bluetooth/host/mesh/libsubsys__bluetooth__host__mesh.a(friend.c.obj)
 .text.friend_purge_old_ack
                0x000000000800ed9c       0x60 zephyr/subsys/bluetooth/host/mesh/libsubsys__bluetooth__host__mesh.a(friend.c.obj)
 .text.friend_clear
                0x000000000800edfc       0x86 zephyr/subsys/bluetooth/host/mesh/libsubsys__bluetooth__host__mesh.a(friend.c.obj)
 *fill*         0x000000000800ee82        0x2 
 .text.send_friend_clear
                0x000000000800ee84       0x78 zephyr/subsys/bluetooth/host/mesh/libsubsys__bluetooth__host__mesh.a(friend.c.obj)
 .text.k_delayed_work_submit
                0x000000000800eefc       0x10 zephyr/subsys/bluetooth/host/mesh/libsubsys__bluetooth__host__mesh.a(friend.c.obj)
 .text.friend_clear_sent
                0x000000000800ef0c       0x22 zephyr/subsys/bluetooth/host/mesh/libsubsys__bluetooth__host__mesh.a(friend.c.obj)
 *fill*         0x000000000800ef2e        0x2 
 .text.create_friend_pdu
                0x000000000800ef30      0x168 zephyr/subsys/bluetooth/host/mesh/libsubsys__bluetooth__host__mesh.a(friend.c.obj)
 .text.encode_friend_ctl
                0x000000000800f098       0x6c zephyr/subsys/bluetooth/host/mesh/libsubsys__bluetooth__host__mesh.a(friend.c.obj)
 .text.enqueue_sub_cfm
                0x000000000800f104       0x48 zephyr/subsys/bluetooth/host/mesh/libsubsys__bluetooth__host__mesh.a(friend.c.obj)
 .text.clear_timeout
                0x000000000800f14c       0x2c zephyr/subsys/bluetooth/host/mesh/libsubsys__bluetooth__host__mesh.a(friend.c.obj)
 .text.friend_timeout
                0x000000000800f178       0x68 zephyr/subsys/bluetooth/host/mesh/libsubsys__bluetooth__host__mesh.a(friend.c.obj)
 .text.friend_lpn_matches
                0x000000000800f1e0       0x36 zephyr/subsys/bluetooth/host/mesh/libsubsys__bluetooth__host__mesh.a(friend.c.obj)
 .text.buf_send_start
                0x000000000800f216       0x1c zephyr/subsys/bluetooth/host/mesh/libsubsys__bluetooth__host__mesh.a(friend.c.obj)
 .text.buf_send_end
                0x000000000800f232       0x1c zephyr/subsys/bluetooth/host/mesh/libsubsys__bluetooth__host__mesh.a(friend.c.obj)
 *fill*         0x000000000800f24e        0x2 
 .text.enqueue_update
                0x000000000800f250       0x78 zephyr/subsys/bluetooth/host/mesh/libsubsys__bluetooth__host__mesh.a(friend.c.obj)
 .text.enqueue_friend_pdu
                0x000000000800f2c8       0xbe zephyr/subsys/bluetooth/host/mesh/libsubsys__bluetooth__host__mesh.a(friend.c.obj)
 *fill*         0x000000000800f386        0x2 
 .text.bt_mesh_friend_find
                0x000000000800f388       0x60 zephyr/subsys/bluetooth/host/mesh/libsubsys__bluetooth__host__mesh.a(friend.c.obj)
                0x000000000800f388                bt_mesh_friend_find
 .text.bt_mesh_friend_clear_net_idx
                0x000000000800f3e8       0x4c zephyr/subsys/bluetooth/host/mesh/libsubsys__bluetooth__host__mesh.a(friend.c.obj)
                0x000000000800f3e8                bt_mesh_friend_clear_net_idx
 .text.bt_mesh_friend_sec_update
                0x000000000800f434       0x4c zephyr/subsys/bluetooth/host/mesh/libsubsys__bluetooth__host__mesh.a(friend.c.obj)
                0x000000000800f434                bt_mesh_friend_sec_update
 .text.bt_mesh_friend_clear
                0x000000000800f480       0x96 zephyr/subsys/bluetooth/host/mesh/libsubsys__bluetooth__host__mesh.a(friend.c.obj)
                0x000000000800f480                bt_mesh_friend_clear
 .text.bt_mesh_friend_sub_add
                0x000000000800f516       0x74 zephyr/subsys/bluetooth/host/mesh/libsubsys__bluetooth__host__mesh.a(friend.c.obj)
                0x000000000800f516                bt_mesh_friend_sub_add
 .text.bt_mesh_friend_sub_rem
                0x000000000800f58a       0x7e zephyr/subsys/bluetooth/host/mesh/libsubsys__bluetooth__host__mesh.a(friend.c.obj)
                0x000000000800f58a                bt_mesh_friend_sub_rem
 .text.bt_mesh_friend_poll
                0x000000000800f608       0x8c zephyr/subsys/bluetooth/host/mesh/libsubsys__bluetooth__host__mesh.a(friend.c.obj)
                0x000000000800f608                bt_mesh_friend_poll
 .text.bt_mesh_friend_clear_cfm
                0x000000000800f694       0x64 zephyr/subsys/bluetooth/host/mesh/libsubsys__bluetooth__host__mesh.a(friend.c.obj)
                0x000000000800f694                bt_mesh_friend_clear_cfm
 .text.bt_mesh_friend_req
                0x000000000800f6f8      0x1c8 zephyr/subsys/bluetooth/host/mesh/libsubsys__bluetooth__host__mesh.a(friend.c.obj)
                0x000000000800f6f8                bt_mesh_friend_req
 .text.bt_mesh_friend_init
                0x000000000800f8c0       0x6c zephyr/subsys/bluetooth/host/mesh/libsubsys__bluetooth__host__mesh.a(friend.c.obj)
                0x000000000800f8c0                bt_mesh_friend_init
 .text.bt_mesh_friend_match
                0x000000000800f92c       0x2c zephyr/subsys/bluetooth/host/mesh/libsubsys__bluetooth__host__mesh.a(friend.c.obj)
                0x000000000800f92c                bt_mesh_friend_match
 .text.bt_mesh_friend_enqueue_rx
                0x000000000800f958       0xec zephyr/subsys/bluetooth/host/mesh/libsubsys__bluetooth__host__mesh.a(friend.c.obj)
                0x000000000800f958                bt_mesh_friend_enqueue_rx
 .text.bt_mesh_friend_enqueue_tx
                0x000000000800fa44      0x104 zephyr/subsys/bluetooth/host/mesh/libsubsys__bluetooth__host__mesh.a(friend.c.obj)
                0x000000000800fa44                bt_mesh_friend_enqueue_tx
 .text.bt_mesh_friend_clear_incomplete
                0x000000000800fb48       0x70 zephyr/subsys/bluetooth/host/mesh/libsubsys__bluetooth__host__mesh.a(friend.c.obj)
                0x000000000800fb48                bt_mesh_friend_clear_incomplete
 .text.ack_complete
                0x000000000800fbb8        0xc zephyr/subsys/bluetooth/host/mesh/libsubsys__bluetooth__host__mesh.a(prov.c.obj)
 .text.prov_failed
                0x000000000800fbc4        0x2 zephyr/subsys/bluetooth/host/mesh/libsubsys__bluetooth__host__mesh.a(prov.c.obj)
 .text.adv_buf_create
                0x000000000800fbc6        0xe zephyr/subsys/bluetooth/host/mesh/libsubsys__bluetooth__host__mesh.a(prov.c.obj)
 .text.send_reliable
                0x000000000800fbd4       0x40 zephyr/subsys/bluetooth/host/mesh/libsubsys__bluetooth__host__mesh.a(prov.c.obj)
 .text.atomic_or
                0x000000000800fc14       0x22 zephyr/subsys/bluetooth/host/mesh/libsubsys__bluetooth__host__mesh.a(prov.c.obj)
 *fill*         0x000000000800fc36        0x2 
 .text.gen_prov_ack_send
                0x000000000800fc38       0x68 zephyr/subsys/bluetooth/host/mesh/libsubsys__bluetooth__host__mesh.a(prov.c.obj)
 .text.prov_input_complete
                0x000000000800fca0        0x2 zephyr/subsys/bluetooth/host/mesh/libsubsys__bluetooth__host__mesh.a(prov.c.obj)
 .text.sys_memcpy_swap.constprop.19
                0x000000000800fca2       0x14 zephyr/subsys/bluetooth/host/mesh/libsubsys__bluetooth__host__mesh.a(prov.c.obj)
 *fill*         0x000000000800fcb6        0x2 
 .text.buf_sent
                0x000000000800fcb8       0x20 zephyr/subsys/bluetooth/host/mesh/libsubsys__bluetooth__host__mesh.a(prov.c.obj)
 .text.atomic_test_bit.constprop.24
                0x000000000800fcd8       0x24 zephyr/subsys/bluetooth/host/mesh/libsubsys__bluetooth__host__mesh.a(prov.c.obj)
 .text.prov_complete
                0x000000000800fcfc        0x2 zephyr/subsys/bluetooth/host/mesh/libsubsys__bluetooth__host__mesh.a(prov.c.obj)
 .text.prov_capabilities
                0x000000000800fcfe        0x2 zephyr/subsys/bluetooth/host/mesh/libsubsys__bluetooth__host__mesh.a(prov.c.obj)
 .text.free_segments
                0x000000000800fd00       0x38 zephyr/subsys/bluetooth/host/mesh/libsubsys__bluetooth__host__mesh.a(prov.c.obj)
 .text.prov_clear_tx
                0x000000000800fd38       0x14 zephyr/subsys/bluetooth/host/mesh/libsubsys__bluetooth__host__mesh.a(prov.c.obj)
 .text.gen_prov_ack
                0x000000000800fd4c       0x1c zephyr/subsys/bluetooth/host/mesh/libsubsys__bluetooth__host__mesh.a(prov.c.obj)
 .text.bearer_ctl_send
                0x000000000800fd68       0x60 zephyr/subsys/bluetooth/host/mesh/libsubsys__bluetooth__host__mesh.a(prov.c.obj)
 .text.prov_send
                0x000000000800fdc8      0x148 zephyr/subsys/bluetooth/host/mesh/libsubsys__bluetooth__host__mesh.a(prov.c.obj)
 .text.atomic_test_and_clear_bit.constprop.23
                0x000000000800ff10       0x40 zephyr/subsys/bluetooth/host/mesh/libsubsys__bluetooth__host__mesh.a(prov.c.obj)
 .text.prov_send_fail_msg
                0x000000000800ff50       0x34 zephyr/subsys/bluetooth/host/mesh/libsubsys__bluetooth__host__mesh.a(prov.c.obj)
 .text.prov_start
                0x000000000800ff84      0x1c8 zephyr/subsys/bluetooth/host/mesh/libsubsys__bluetooth__host__mesh.a(prov.c.obj)
 .text.reset_link
                0x000000000801014c       0x58 zephyr/subsys/bluetooth/host/mesh/libsubsys__bluetooth__host__mesh.a(prov.c.obj)
 .text.gen_prov_ctl
                0x00000000080101a4       0x90 zephyr/subsys/bluetooth/host/mesh/libsubsys__bluetooth__host__mesh.a(prov.c.obj)
 .text.prov_retransmit
                0x0000000008010234       0x74 zephyr/subsys/bluetooth/host/mesh/libsubsys__bluetooth__host__mesh.a(prov.c.obj)
 .text.bt_mesh_pb_gatt_recv
                0x00000000080102a8       0x54 zephyr/subsys/bluetooth/host/mesh/libsubsys__bluetooth__host__mesh.a(prov.c.obj)
                0x00000000080102a8                bt_mesh_pb_gatt_recv
 .text.bt_mesh_pb_gatt_open
                0x00000000080102fc       0x44 zephyr/subsys/bluetooth/host/mesh/libsubsys__bluetooth__host__mesh.a(prov.c.obj)
                0x00000000080102fc                bt_mesh_pb_gatt_open
 .text.bt_mesh_pb_gatt_close
                0x0000000008010340       0x5c zephyr/subsys/bluetooth/host/mesh/libsubsys__bluetooth__host__mesh.a(prov.c.obj)
                0x0000000008010340                bt_mesh_pb_gatt_close
 .text.close_link.constprop.21
                0x000000000801039c       0x60 zephyr/subsys/bluetooth/host/mesh/libsubsys__bluetooth__host__mesh.a(prov.c.obj)
 .text.prov_invite
                0x00000000080103fc       0xc4 zephyr/subsys/bluetooth/host/mesh/libsubsys__bluetooth__host__mesh.a(prov.c.obj)
 .text.send_pub_key
                0x00000000080104c0       0xa8 zephyr/subsys/bluetooth/host/mesh/libsubsys__bluetooth__host__mesh.a(prov.c.obj)
 .text.prov_pub_key
                0x0000000008010568       0x34 zephyr/subsys/bluetooth/host/mesh/libsubsys__bluetooth__host__mesh.a(prov.c.obj)
 .text.pub_key_ready
                0x000000000801059c       0x24 zephyr/subsys/bluetooth/host/mesh/libsubsys__bluetooth__host__mesh.a(prov.c.obj)
 .text.prov_random
                0x00000000080105c0       0xb0 zephyr/subsys/bluetooth/host/mesh/libsubsys__bluetooth__host__mesh.a(prov.c.obj)
 .text.prov_data
                0x0000000008010670      0x10c zephyr/subsys/bluetooth/host/mesh/libsubsys__bluetooth__host__mesh.a(prov.c.obj)
 .text.prov_msg_recv
                0x000000000801077c       0x84 zephyr/subsys/bluetooth/host/mesh/libsubsys__bluetooth__host__mesh.a(prov.c.obj)
 .text.gen_prov_cont
                0x0000000008010800       0xa0 zephyr/subsys/bluetooth/host/mesh/libsubsys__bluetooth__host__mesh.a(prov.c.obj)
 .text.gen_prov_start
                0x00000000080108a0       0x98 zephyr/subsys/bluetooth/host/mesh/libsubsys__bluetooth__host__mesh.a(prov.c.obj)
 .text.send_confirm
                0x0000000008010938       0x98 zephyr/subsys/bluetooth/host/mesh/libsubsys__bluetooth__host__mesh.a(prov.c.obj)
 .text.prov_confirm
                0x00000000080109d0       0x34 zephyr/subsys/bluetooth/host/mesh/libsubsys__bluetooth__host__mesh.a(prov.c.obj)
 .text.prov_dh_key_cb
                0x0000000008010a04       0x48 zephyr/subsys/bluetooth/host/mesh/libsubsys__bluetooth__host__mesh.a(prov.c.obj)
 .text.bt_mesh_prov_get_uuid
                0x0000000008010a4c        0xc zephyr/subsys/bluetooth/host/mesh/libsubsys__bluetooth__host__mesh.a(prov.c.obj)
                0x0000000008010a4c                bt_mesh_prov_get_uuid
 .text.bt_prov_active
                0x0000000008010a58       0x10 zephyr/subsys/bluetooth/host/mesh/libsubsys__bluetooth__host__mesh.a(prov.c.obj)
                0x0000000008010a58                bt_prov_active
 .text.bt_mesh_pb_adv_recv
                0x0000000008010a68       0x94 zephyr/subsys/bluetooth/host/mesh/libsubsys__bluetooth__host__mesh.a(prov.c.obj)
                0x0000000008010a68                bt_mesh_pb_adv_recv
 .text.bt_mesh_prov_init
                0x0000000008010afc       0x48 zephyr/subsys/bluetooth/host/mesh/libsubsys__bluetooth__host__mesh.a(prov.c.obj)
                0x0000000008010afc                bt_mesh_prov_init
 .text.bt_mesh_prov_complete
                0x0000000008010b44       0x10 zephyr/subsys/bluetooth/host/mesh/libsubsys__bluetooth__host__mesh.a(prov.c.obj)
                0x0000000008010b44                bt_mesh_prov_complete
 .text.bt_mesh_prov_reset
                0x0000000008010b54       0x10 zephyr/subsys/bluetooth/host/mesh/libsubsys__bluetooth__host__mesh.a(prov.c.obj)
                0x0000000008010b54                bt_mesh_prov_reset
 .text.find_client
                0x0000000008010b64       0x14 zephyr/subsys/bluetooth/host/mesh/libsubsys__bluetooth__host__mesh.a(proxy.c.obj)
 .text.proxy_ccc_read
                0x0000000008010b78       0x18 zephyr/subsys/bluetooth/host/mesh/libsubsys__bluetooth__host__mesh.a(proxy.c.obj)
 .text.prov_ccc_read
                0x0000000008010b90        0xe zephyr/subsys/bluetooth/host/mesh/libsubsys__bluetooth__host__mesh.a(proxy.c.obj)
 *fill*         0x0000000008010b9e        0x2 
 .text.next_sub
                0x0000000008010ba0       0x64 zephyr/subsys/bluetooth/host/mesh/libsubsys__bluetooth__host__mesh.a(proxy.c.obj)
 .text.proxy_disconnected
                0x0000000008010c04       0x38 zephyr/subsys/bluetooth/host/mesh/libsubsys__bluetooth__host__mesh.a(proxy.c.obj)
 .text.proxy_connected
                0x0000000008010c3c       0x4c zephyr/subsys/bluetooth/host/mesh/libsubsys__bluetooth__host__mesh.a(proxy.c.obj)
 .text.filter_add
                0x0000000008010c88       0x2a zephyr/subsys/bluetooth/host/mesh/libsubsys__bluetooth__host__mesh.a(proxy.c.obj)
 *fill*         0x0000000008010cb2        0x2 
 .text.proxy_send
                0x0000000008010cb4       0x2c zephyr/subsys/bluetooth/host/mesh/libsubsys__bluetooth__host__mesh.a(proxy.c.obj)
 .text.proxy_segment_and_send
                0x0000000008010ce0       0x92 zephyr/subsys/bluetooth/host/mesh/libsubsys__bluetooth__host__mesh.a(proxy.c.obj)
 .text.beacon_send
                0x0000000008010d72       0x34 zephyr/subsys/bluetooth/host/mesh/libsubsys__bluetooth__host__mesh.a(proxy.c.obj)
 *fill*         0x0000000008010da6        0x2 
 .text.proxy_send_beacons
                0x0000000008010da8       0x44 zephyr/subsys/bluetooth/host/mesh/libsubsys__bluetooth__host__mesh.a(proxy.c.obj)
 .text.send_filter_status
                0x0000000008010dec       0x78 zephyr/subsys/bluetooth/host/mesh/libsubsys__bluetooth__host__mesh.a(proxy.c.obj)
 .text.proxy_complete_pdu
                0x0000000008010e64      0x10e zephyr/subsys/bluetooth/host/mesh/libsubsys__bluetooth__host__mesh.a(proxy.c.obj)
 .text.proxy_recv
                0x0000000008010f72       0xb0 zephyr/subsys/bluetooth/host/mesh/libsubsys__bluetooth__host__mesh.a(proxy.c.obj)
 .text.prov_ccc_write
                0x0000000008011022       0x36 zephyr/subsys/bluetooth/host/mesh/libsubsys__bluetooth__host__mesh.a(proxy.c.obj)
 .text.proxy_ccc_write
                0x0000000008011058       0x5c zephyr/subsys/bluetooth/host/mesh/libsubsys__bluetooth__host__mesh.a(proxy.c.obj)
 .text.bt_mesh_proxy_beacon_send
                0x00000000080110b4       0x48 zephyr/subsys/bluetooth/host/mesh/libsubsys__bluetooth__host__mesh.a(proxy.c.obj)
                0x00000000080110b4                bt_mesh_proxy_beacon_send
 .text.bt_mesh_proxy_identity_start
                0x00000000080110fc       0x34 zephyr/subsys/bluetooth/host/mesh/libsubsys__bluetooth__host__mesh.a(proxy.c.obj)
                0x00000000080110fc                bt_mesh_proxy_identity_start
 .text.bt_mesh_proxy_identity_stop
                0x0000000008011130        0xa zephyr/subsys/bluetooth/host/mesh/libsubsys__bluetooth__host__mesh.a(proxy.c.obj)
                0x0000000008011130                bt_mesh_proxy_identity_stop
 *fill*         0x000000000801113a        0x2 
 .text.bt_mesh_proxy_get_buf
                0x000000000801113c       0x14 zephyr/subsys/bluetooth/host/mesh/libsubsys__bluetooth__host__mesh.a(proxy.c.obj)
                0x000000000801113c                bt_mesh_proxy_get_buf
 .text.bt_mesh_proxy_prov_enable
                0x0000000008011150       0x30 zephyr/subsys/bluetooth/host/mesh/libsubsys__bluetooth__host__mesh.a(proxy.c.obj)
                0x0000000008011150                bt_mesh_proxy_prov_enable
 .text.bt_mesh_proxy_prov_disable
                0x0000000008011180       0x30 zephyr/subsys/bluetooth/host/mesh/libsubsys__bluetooth__host__mesh.a(proxy.c.obj)
                0x0000000008011180                bt_mesh_proxy_prov_disable
 .text.bt_mesh_proxy_gatt_enable
                0x00000000080111b0       0x28 zephyr/subsys/bluetooth/host/mesh/libsubsys__bluetooth__host__mesh.a(proxy.c.obj)
                0x00000000080111b0                bt_mesh_proxy_gatt_enable
 .text.bt_mesh_proxy_gatt_disconnect
                0x00000000080111d8       0x20 zephyr/subsys/bluetooth/host/mesh/libsubsys__bluetooth__host__mesh.a(proxy.c.obj)
                0x00000000080111d8                bt_mesh_proxy_gatt_disconnect
 .text.bt_mesh_proxy_gatt_disable
                0x00000000080111f8       0x1c zephyr/subsys/bluetooth/host/mesh/libsubsys__bluetooth__host__mesh.a(proxy.c.obj)
                0x00000000080111f8                bt_mesh_proxy_gatt_disable
 .text.bt_mesh_proxy_addr_add
                0x0000000008011214       0x42 zephyr/subsys/bluetooth/host/mesh/libsubsys__bluetooth__host__mesh.a(proxy.c.obj)
                0x0000000008011214                bt_mesh_proxy_addr_add
 .text.bt_mesh_proxy_send
                0x0000000008011256       0x3c zephyr/subsys/bluetooth/host/mesh/libsubsys__bluetooth__host__mesh.a(proxy.c.obj)
                0x0000000008011256                bt_mesh_proxy_send
 *fill*         0x0000000008011292        0x2 
 .text.bt_mesh_proxy_relay
                0x0000000008011294       0x78 zephyr/subsys/bluetooth/host/mesh/libsubsys__bluetooth__host__mesh.a(proxy.c.obj)
                0x0000000008011294                bt_mesh_proxy_relay
 .text.bt_mesh_proxy_adv_start
                0x000000000801130c      0x1e0 zephyr/subsys/bluetooth/host/mesh/libsubsys__bluetooth__host__mesh.a(proxy.c.obj)
                0x000000000801130c                bt_mesh_proxy_adv_start
 .text.bt_mesh_proxy_adv_stop
                0x00000000080114ec       0x18 zephyr/subsys/bluetooth/host/mesh/libsubsys__bluetooth__host__mesh.a(proxy.c.obj)
                0x00000000080114ec                bt_mesh_proxy_adv_stop
 .text.bt_mesh_proxy_init
                0x0000000008011504       0x24 zephyr/subsys/bluetooth/host/mesh/libsubsys__bluetooth__host__mesh.a(proxy.c.obj)
                0x0000000008011504                bt_mesh_proxy_init
 .text.net_buf_pool_get
                0x0000000008011528        0xc zephyr/subsys/net/libsubsys__net.a(buf.c.obj)
                0x0000000008011528                net_buf_pool_get
 .text.net_buf_id
                0x0000000008011534       0x2c zephyr/subsys/net/libsubsys__net.a(buf.c.obj)
                0x0000000008011534                net_buf_id
 .text.net_buf_alloc
                0x0000000008011560       0x80 zephyr/subsys/net/libsubsys__net.a(buf.c.obj)
                0x0000000008011560                net_buf_alloc
 .text.net_buf_get
                0x00000000080115e0       0x32 zephyr/subsys/net/libsubsys__net.a(buf.c.obj)
                0x00000000080115e0                net_buf_get
 .text.net_buf_reserve
                0x0000000008011612        0xa zephyr/subsys/net/libsubsys__net.a(buf.c.obj)
                0x0000000008011612                net_buf_reserve
 .text.net_buf_slist_put
                0x000000000801161c       0x32 zephyr/subsys/net/libsubsys__net.a(buf.c.obj)
                0x000000000801161c                net_buf_slist_put
 .text.net_buf_slist_get
                0x000000000801164e       0x62 zephyr/subsys/net/libsubsys__net.a(buf.c.obj)
                0x000000000801164e                net_buf_slist_get
 .text.net_buf_put
                0x00000000080116b0       0x1a zephyr/subsys/net/libsubsys__net.a(buf.c.obj)
                0x00000000080116b0                net_buf_put
 *fill*         0x00000000080116ca        0x2 
 .text.net_buf_unref
                0x00000000080116cc       0x38 zephyr/subsys/net/libsubsys__net.a(buf.c.obj)
                0x00000000080116cc                net_buf_unref
 .text.net_buf_ref
                0x0000000008011704        0x8 zephyr/subsys/net/libsubsys__net.a(buf.c.obj)
                0x0000000008011704                net_buf_ref
 .text.net_buf_simple_add
                0x000000000801170c        0xc zephyr/subsys/net/libsubsys__net.a(buf.c.obj)
                0x000000000801170c                net_buf_simple_add
 .text.net_buf_simple_add_mem
                0x0000000008011718       0x12 zephyr/subsys/net/libsubsys__net.a(buf.c.obj)
                0x0000000008011718                net_buf_simple_add_mem
 .text.net_buf_simple_add_u8
                0x000000000801172a       0x10 zephyr/subsys/net/libsubsys__net.a(buf.c.obj)
                0x000000000801172a                net_buf_simple_add_u8
 .text.net_buf_simple_add_le16
                0x000000000801173a       0x1e zephyr/subsys/net/libsubsys__net.a(buf.c.obj)
                0x000000000801173a                net_buf_simple_add_le16
 .text.net_buf_simple_add_be16
                0x0000000008011758       0x22 zephyr/subsys/net/libsubsys__net.a(buf.c.obj)
                0x0000000008011758                net_buf_simple_add_be16
 .text.net_buf_simple_add_be32
                0x000000000801177a       0x1e zephyr/subsys/net/libsubsys__net.a(buf.c.obj)
                0x000000000801177a                net_buf_simple_add_be32
 .text.net_buf_simple_push
                0x0000000008011798       0x10 zephyr/subsys/net/libsubsys__net.a(buf.c.obj)
                0x0000000008011798                net_buf_simple_push
 .text.net_buf_simple_push_be16
                0x00000000080117a8       0x28 zephyr/subsys/net/libsubsys__net.a(buf.c.obj)
                0x00000000080117a8                net_buf_simple_push_be16
 .text.net_buf_simple_push_u8
                0x00000000080117d0       0x12 zephyr/subsys/net/libsubsys__net.a(buf.c.obj)
                0x00000000080117d0                net_buf_simple_push_u8
 .text.net_buf_simple_pull
                0x00000000080117e2       0x10 zephyr/subsys/net/libsubsys__net.a(buf.c.obj)
                0x00000000080117e2                net_buf_simple_pull
 .text.net_buf_simple_pull_u8
                0x00000000080117f2       0x10 zephyr/subsys/net/libsubsys__net.a(buf.c.obj)
                0x00000000080117f2                net_buf_simple_pull_u8
 .text.net_buf_simple_pull_le16
                0x0000000008011802       0x10 zephyr/subsys/net/libsubsys__net.a(buf.c.obj)
                0x0000000008011802                net_buf_simple_pull_le16
 .text.net_buf_simple_pull_be16
                0x0000000008011812       0x16 zephyr/subsys/net/libsubsys__net.a(buf.c.obj)
                0x0000000008011812                net_buf_simple_pull_be16
 .text.net_buf_simple_pull_be32
                0x0000000008011828       0x24 zephyr/subsys/net/libsubsys__net.a(buf.c.obj)
                0x0000000008011828                net_buf_simple_pull_be32
 .text.net_buf_simple_headroom
                0x000000000801184c        0xa zephyr/subsys/net/libsubsys__net.a(buf.c.obj)
                0x000000000801184c                net_buf_simple_headroom
 .text.net_buf_simple_tailroom
                0x0000000008011856       0x12 zephyr/subsys/net/libsubsys__net.a(buf.c.obj)
                0x0000000008011856                net_buf_simple_tailroom
 .text._sys_device_do_config_level
                0x0000000008011868       0x28 zephyr/kernel/libkernel.a(device.c.obj)
                0x0000000008011868                _sys_device_do_config_level
 .text.device_get_binding
                0x0000000008011890       0x38 zephyr/kernel/libkernel.a(device.c.obj)
                0x0000000008011890                device_get_binding
 .text.k_call_stacks_analyze
                0x00000000080118c8        0x2 zephyr/kernel/libkernel.a(init.c.obj)
                0x00000000080118c8                k_call_stacks_analyze
 *fill*         0x00000000080118ca        0x2 
 .text._bss_zero
                0x00000000080118cc       0x14 zephyr/kernel/libkernel.a(init.c.obj)
                0x00000000080118cc                _bss_zero
 .text._data_copy
                0x00000000080118e0       0x18 zephyr/kernel/libkernel.a(init.c.obj)
                0x00000000080118e0                _data_copy
 .text._main    0x00000000080118f8       0x28 zephyr/kernel/libkernel.a(init.c.obj)
 .text._Cstart  0x0000000008011920      0x100 zephyr/kernel/libkernel.a(init.c.obj)
                0x0000000008011920                _Cstart
 .text.k_queue_init
                0x0000000008011a20       0x10 zephyr/kernel/libkernel.a(queue.c.obj)
                0x0000000008011a20                k_queue_init
 .text.k_queue_cancel_wait
                0x0000000008011a30       0x2c zephyr/kernel/libkernel.a(queue.c.obj)
                0x0000000008011a30                k_queue_cancel_wait
 .text.k_queue_insert
                0x0000000008011a5c       0x52 zephyr/kernel/libkernel.a(queue.c.obj)
                0x0000000008011a5c                k_queue_insert
 .text.k_queue_append
                0x0000000008011aae        0x8 zephyr/kernel/libkernel.a(queue.c.obj)
                0x0000000008011aae                k_queue_append
 .text.k_queue_prepend
                0x0000000008011ab6        0x8 zephyr/kernel/libkernel.a(queue.c.obj)
                0x0000000008011ab6                k_queue_prepend
 .text.k_queue_append_list
                0x0000000008011abe       0x38 zephyr/kernel/libkernel.a(queue.c.obj)
                0x0000000008011abe                k_queue_append_list
 .text.k_queue_get
                0x0000000008011af6       0x8c zephyr/kernel/libkernel.a(queue.c.obj)
                0x0000000008011af6                k_queue_get
 *fill*         0x0000000008011b82        0x2 
 .text._add_thread_to_ready_q
                0x0000000008011b84       0x50 zephyr/kernel/libkernel.a(sched.c.obj)
                0x0000000008011b84                _add_thread_to_ready_q
 .text._ready_thread
                0x0000000008011bd4       0x1a zephyr/kernel/libkernel.a(sched.c.obj)
 *fill*         0x0000000008011bee        0x2 
 .text._add_timeout
                0x0000000008011bf0       0x9c zephyr/kernel/libkernel.a(sched.c.obj)
 .text._remove_thread_from_ready_q
                0x0000000008011c8c       0x68 zephyr/kernel/libkernel.a(sched.c.obj)
                0x0000000008011c8c                _remove_thread_from_ready_q
 .text._pend_thread
                0x0000000008011cf4       0x5c zephyr/kernel/libkernel.a(sched.c.obj)
                0x0000000008011cf4                _pend_thread
 .text._pend_current_thread
                0x0000000008011d50       0x20 zephyr/kernel/libkernel.a(sched.c.obj)
                0x0000000008011d50                _pend_current_thread
 .text.__must_switch_threads
                0x0000000008011d70       0x2c zephyr/kernel/libkernel.a(sched.c.obj)
                0x0000000008011d70                __must_switch_threads
 .text._reschedule_threads
                0x0000000008011d9c       0x34 zephyr/kernel/libkernel.a(sched.c.obj)
                0x0000000008011d9c                _reschedule_threads
 .text.k_sched_unlock
                0x0000000008011dd0       0x20 zephyr/kernel/libkernel.a(sched.c.obj)
                0x0000000008011dd0                k_sched_unlock
 .text._move_thread_to_end_of_prio_q
                0x0000000008011df0       0x54 zephyr/kernel/libkernel.a(sched.c.obj)
                0x0000000008011df0                _move_thread_to_end_of_prio_q
 .text._impl_k_yield
                0x0000000008011e44       0x3c zephyr/kernel/libkernel.a(sched.c.obj)
                0x0000000008011e44                _impl_k_yield
 .text._impl_k_sleep
                0x0000000008011e80       0x48 zephyr/kernel/libkernel.a(sched.c.obj)
                0x0000000008011e80                _impl_k_sleep
 .text._impl_k_current_get
                0x0000000008011ec8        0xc zephyr/kernel/libkernel.a(sched.c.obj)
                0x0000000008011ec8                _impl_k_current_get
 .text._is_thread_time_slicing
                0x0000000008011ed4       0x48 zephyr/kernel/libkernel.a(sched.c.obj)
                0x0000000008011ed4                _is_thread_time_slicing
 .text._update_time_slice_before_swap
                0x0000000008011f1c        0xc zephyr/kernel/libkernel.a(sched.c.obj)
                0x0000000008011f1c                _update_time_slice_before_swap
 .text._ready_thread
                0x0000000008011f28       0x1a zephyr/kernel/libkernel.a(sem.c.obj)
 *fill*         0x0000000008011f42        0x2 
 .text._unpend_first_thread
                0x0000000008011f44       0x48 zephyr/kernel/libkernel.a(sem.c.obj)
 .text._abort_timeout
                0x0000000008011f8c       0x34 zephyr/kernel/libkernel.a(sem.c.obj)
 .text._impl_k_sem_init
                0x0000000008011fc0       0x12 zephyr/kernel/libkernel.a(sem.c.obj)
                0x0000000008011fc0                _impl_k_sem_init
 *fill*         0x0000000008011fd2        0x2 
 .text._impl_k_sem_give
                0x0000000008011fd4       0x84 zephyr/kernel/libkernel.a(sem.c.obj)
                0x0000000008011fd4                _impl_k_sem_give
 .text._impl_k_sem_take
                0x0000000008012058       0x3c zephyr/kernel/libkernel.a(sem.c.obj)
                0x0000000008012058                _impl_k_sem_take
 .text._impl_k_uptime_get_32
                0x0000000008012094        0xc zephyr/kernel/libkernel.a(sys_clock.c.obj)
                0x0000000008012094                _impl_k_uptime_get_32
 .text._tick_get
                0x00000000080120a0       0x1c zephyr/kernel/libkernel.a(sys_clock.c.obj)
                0x00000000080120a0                sys_tick_get
                0x00000000080120a0                _tick_get
 .text._impl_k_uptime_get
                0x00000000080120bc        0x4 zephyr/kernel/libkernel.a(sys_clock.c.obj)
                0x00000000080120bc                _impl_k_uptime_get
 .text._nano_sys_clock_tick_announce
                0x00000000080120c0      0x18c zephyr/kernel/libkernel.a(sys_clock.c.obj)
                0x00000000080120c0                _nano_sys_clock_tick_announce
 .text.k_sys_work_q_init
                0x000000000801224c       0x20 zephyr/kernel/libkernel.a(system_work_q.c.obj)
 .text._is_thread_ready
                0x000000000801226c       0x14 zephyr/kernel/libkernel.a(thread.c.obj)
 .text._abort_timeout
                0x0000000008012280       0x34 zephyr/kernel/libkernel.a(thread.c.obj)
 .text.k_is_in_isr
                0x00000000080122b4       0x20 zephyr/kernel/libkernel.a(thread.c.obj)
                0x00000000080122b4                k_is_in_isr
 .text._is_thread_essential
                0x00000000080122d4       0x10 zephyr/kernel/libkernel.a(thread.c.obj)
                0x00000000080122d4                _is_thread_essential
 .text.k_busy_wait
                0x00000000080122e4       0x2c zephyr/kernel/libkernel.a(thread.c.obj)
                0x00000000080122e4                k_busy_wait
 .text._thread_entry
                0x0000000008012310       0x14 zephyr/kernel/libkernel.a(thread.c.obj)
                0x0000000008012310                _thread_entry
 .text._impl_k_thread_start
                0x0000000008012324       0x54 zephyr/kernel/libkernel.a(thread.c.obj)
                0x0000000008012324                _impl_k_thread_start
 .text._setup_new_thread
                0x0000000008012378        0x8 zephyr/kernel/libkernel.a(thread.c.obj)
                0x0000000008012378                _setup_new_thread
 .text._k_thread_single_start
                0x0000000008012380       0x1e zephyr/kernel/libkernel.a(thread.c.obj)
                0x0000000008012380                _k_thread_single_start
 *fill*         0x000000000801239e        0x2 
 .text.schedule_new_thread.part.13
                0x00000000080123a0       0xa4 zephyr/kernel/libkernel.a(thread.c.obj)
 .text._impl_k_thread_create
                0x0000000008012444       0x3c zephyr/kernel/libkernel.a(thread.c.obj)
                0x0000000008012444                _impl_k_thread_create
 .text._k_thread_single_abort
                0x0000000008012480       0x4a zephyr/kernel/libkernel.a(thread.c.obj)
                0x0000000008012480                _k_thread_single_abort
 *fill*         0x00000000080124ca        0x2 
 .text._init_static_threads
                0x00000000080124cc       0x94 zephyr/kernel/libkernel.a(thread.c.obj)
                0x00000000080124cc                _init_static_threads
 .text._init_thread_base
                0x0000000008012560       0x18 zephyr/kernel/libkernel.a(thread.c.obj)
                0x0000000008012560                _init_thread_base
 .text.k_work_submit_to_queue
                0x0000000008012578       0x30 zephyr/kernel/libkernel.a(work_q.c.obj)
 .text.work_timeout
                0x00000000080125a8        0xa zephyr/kernel/libkernel.a(work_q.c.obj)
 .text.work_q_main
                0x00000000080125b2       0x3e zephyr/kernel/libkernel.a(work_q.c.obj)
 .text.k_work_q_start
                0x00000000080125f0       0x34 zephyr/kernel/libkernel.a(work_q.c.obj)
                0x00000000080125f0                k_work_q_start
 .text.k_delayed_work_init
                0x0000000008012624       0x3c zephyr/kernel/libkernel.a(work_q.c.obj)
                0x0000000008012624                k_delayed_work_init
 .text.k_delayed_work_cancel
                0x0000000008012660       0x98 zephyr/kernel/libkernel.a(work_q.c.obj)
                0x0000000008012660                k_delayed_work_cancel
 .text.k_delayed_work_submit_to_queue
                0x00000000080126f8       0xc8 zephyr/kernel/libkernel.a(work_q.c.obj)
                0x00000000080126f8                k_delayed_work_submit_to_queue
 .text._timeout_remaining_get
                0x00000000080127c0       0x4c zephyr/kernel/libkernel.a(timer.c.obj)
                0x00000000080127c0                _timeout_remaining_get
 .text.sys_dlist_remove
                0x000000000801280c        0xc zephyr/kernel/libkernel.a(poll.c.obj)
 .text.clear_event_registrations
                0x0000000008012818       0x42 zephyr/kernel/libkernel.a(poll.c.obj)
 *fill*         0x000000000801285a        0x2 
 .text._signal_poll_event
                0x000000000801285c       0xcc zephyr/kernel/libkernel.a(poll.c.obj)
 .text.add_event
                0x0000000008012928       0x58 zephyr/kernel/libkernel.a(poll.c.obj)
 .text.k_poll_event_init
                0x0000000008012980       0x26 zephyr/kernel/libkernel.a(poll.c.obj)
                0x0000000008012980                k_poll_event_init
 *fill*         0x00000000080129a6        0x2 
 .text.k_poll   0x00000000080129a8      0x148 zephyr/kernel/libkernel.a(poll.c.obj)
                0x00000000080129a8                k_poll
 .text._handle_obj_poll_events
                0x0000000008012af0       0x24 zephyr/kernel/libkernel.a(poll.c.obj)
                0x0000000008012af0                _handle_obj_poll_events
 .text.k_poll_signal
                0x0000000008012b14       0x52 zephyr/kernel/libkernel.a(poll.c.obj)
                0x0000000008012b14                k_poll_signal
 .text.idle     0x0000000008012b66       0x14 zephyr/kernel/libkernel.a(idle.c.obj)
                0x0000000008012b66                idle
 .text._OffsetAbsSyms
                0x0000000008012b7a        0x2 zephyr/CMakeFiles/offsets.dir/arch/arm/core/offsets/offsets.c.obj
                0x0000000008012b7a                _OffsetAbsSyms
 *(.gnu.linkonce.t.*)
                0x0000000008012b7c                _image_text_end = .

.glue_7         0x0000000008012b7c        0x0
 .glue_7        0x0000000008012b7c        0x0 linker stubs

.glue_7t        0x0000000008012b7c        0x0
 .glue_7t       0x0000000008012b7c        0x0 linker stubs

.vfp11_veneer   0x0000000008012b7c        0x0
 .vfp11_veneer  0x0000000008012b7c        0x0 linker stubs

.v4_bx          0x0000000008012b7c        0x0
 .v4_bx         0x0000000008012b7c        0x0 linker stubs

.iplt           0x0000000008012b7c        0x0
 .iplt          0x0000000008012b7c        0x0 zephyr/CMakeFiles/kernel_elf.dir/isr_tables.c.obj

.igot.plt       0x0000000008012b7c        0x0
 .igot.plt      0x0000000008012b7c        0x0 zephyr/CMakeFiles/kernel_elf.dir/isr_tables.c.obj

.ARM.exidx      0x0000000008012b7c        0x8
                0x0000000008012b7c                __exidx_start = .
 *(.ARM.exidx* gnu.linkonce.armexidx.*)
 .ARM.exidx     0x0000000008012b7c        0x8 /opt/zephyr-sdk/sysroots/armv5-zephyr-eabi/usr/lib/arm-zephyr-eabi/6.2.0/armv7e-m/libgcc.a(_udivmoddi4.o)
                0x0000000008012b84                __exidx_end = .
                0x0000000008012b84                _image_rodata_start = .

devconfig       0x0000000008012b84       0xcc
                0x0000000008012b84                __devconfig_start = .
 *(.devconfig.*)
 .devconfig.init
                0x0000000008012b84        0xc zephyr/libzephyr.a(soc.c.obj)
 .devconfig.init
                0x0000000008012b90        0xc zephyr/libzephyr.a(arm_mpu.c.obj)
 .devconfig.init
                0x0000000008012b9c        0xc zephyr/libzephyr.a(uart_console.c.obj)
 .devconfig.init
                0x0000000008012ba8        0xc zephyr/libzephyr.a(exti_stm32.c.obj)
 .devconfig.init
                0x0000000008012bb4        0xc zephyr/libzephyr.a(stm32_ll_clock.c.obj)
 .devconfig.init
                0x0000000008012bc0        0xc zephyr/libzephyr.a(flash_stm32.c.obj)
 .devconfig.init
                0x0000000008012bcc       0x30 zephyr/libzephyr.a(gpio_stm32.c.obj)
 .devconfig.init
                0x0000000008012bfc        0xc zephyr/libzephyr.a(i2c_ll_stm32.c.obj)
 .devconfig.init
                0x0000000008012c08        0xc zephyr/libzephyr.a(uart_stm32.c.obj)
 .devconfig.init
                0x0000000008012c14        0xc zephyr/libzephyr.a(spi_ll_stm32.c.obj)
 .devconfig.init
                0x0000000008012c20        0xc zephyr/libzephyr.a(spi.c.obj)
 .devconfig.init
                0x0000000008012c2c        0xc zephyr/libzephyr.a(sys_clock_init.c.obj)
 .devconfig.init
                0x0000000008012c38        0xc zephyr/boards/arm/96b_carbon/libboards__arm__96b_carbon.a(pinmux.c.obj)
 .devconfig.init
                0x0000000008012c44        0xc zephyr/kernel/libkernel.a(system_work_q.c.obj)
 *(SORT(.devconfig*))
                0x0000000008012c50                __devconfig_end = .

net_l2          0x0000000008012c50        0x0
                0x0000000008012c50                __net_l2_start = .
 *(.net_l2.init)
 *(SORT(.net_l2.init*))
                0x0000000008012c50                __net_l2_end = .

rodata          0x0000000008012c50     0x11f0
 *(.rodata)
 .rodata        0x0000000008012c50       0x2c zephyr/libzephyr.a(aes_encrypt.c.obj)
 .rodata        0x0000000008012c7c        0x8 zephyr/libzephyr.a(soc_gpio.c.obj)
 .rodata        0x0000000008012c84       0x20 zephyr/libzephyr.a(spi_ll_stm32.c.obj)
 .rodata        0x0000000008012ca4        0x7 zephyr/subsys/bluetooth/host/libsubsys__bluetooth__host.a(hci_core.c.obj)
 *fill*         0x0000000008012cab        0x1 
 .rodata        0x0000000008012cac        0x6 zephyr/subsys/bluetooth/host/mesh/libsubsys__bluetooth__host__mesh.a(adv.c.obj)
 .rodata        0x0000000008012cb2        0x9 zephyr/subsys/bluetooth/host/mesh/libsubsys__bluetooth__host__mesh.a(crypto.c.obj)
 *fill*         0x0000000008012cbb        0x1 
 .rodata        0x0000000008012cbc       0x20 zephyr/subsys/bluetooth/host/mesh/libsubsys__bluetooth__host__mesh.a(prov.c.obj)
 *(.rodata.*)
 .rodata.bt_ready.str1.1
                0x0000000008012cdc       0x73 libapp.a(main.c.obj)
 *fill*         0x0000000008012d4f        0x1 
 .rodata.comp   0x0000000008012d50       0x10 libapp.a(main.c.obj)
 .rodata.dev_uuid
                0x0000000008012d60       0x10 libapp.a(main.c.obj)
 .rodata.main.str1.1
                0x0000000008012d70       0x11 libapp.a(main.c.obj)
 .rodata.output_number.str1.1
                0x0000000008012d81       0x10 libapp.a(main.c.obj)
 *fill*         0x0000000008012d91        0x3 
 .rodata.prov   0x0000000008012d94       0x2c libapp.a(main.c.obj)
 .rodata.prov_complete.str1.1
                0x0000000008012dc0       0x3b libapp.a(main.c.obj)
 *fill*         0x0000000008012dfb        0x1 
 .rodata.temp_srv_op
                0x0000000008012dfc       0x18 libapp.a(main.c.obj)
 .rodata.temp_srv_status.str1.1
                0x0000000008012e14       0x75 libapp.a(main.c.obj)
 *fill*         0x0000000008012e89        0x3 
 .rodata.curve_secp256r1
                0x0000000008012e8c       0xb0 zephyr/libzephyr.a(ecc.c.obj)
 .rodata.sbox   0x0000000008012f3c      0x100 zephyr/libzephyr.a(aes_encrypt.c.obj)
 .rodata.k256   0x000000000801303c      0x100 zephyr/libzephyr.a(sha256.c.obj)
 .rodata.AHBPrescTable
                0x000000000801313c       0x10 zephyr/libzephyr.a(system_stm32f4xx.c.obj)
                0x000000000801313c                AHBPrescTable
 .rodata.str1.1
                0x000000000801314c       0x75 zephyr/libzephyr.a(soc.c.obj)
                                          0x1 (size before relaxing)
 .rodata.stm32_gpio_enable_int.str1.1
                0x000000000801314c        0x9 zephyr/libzephyr.a(soc_gpio.c.obj)
 .rodata.str1.1
                0x0000000008013155       0x27 zephyr/libzephyr.a(arm_mpu_regions.c.obj)
 .rodata._BusFault.str1.1
                0x000000000801317c       0x66 zephyr/libzephyr.a(fault.c.obj)
 .rodata._Fault.str1.1
                0x00000000080131e2       0xd3 zephyr/libzephyr.a(fault.c.obj)
 .rodata._FaultThreadShow.isra.2.str1.1
                0x00000000080132b5       0x4a zephyr/libzephyr.a(fault.c.obj)
 .rodata._MpuFault.str1.1
                0x00000000080132ff       0x87 zephyr/libzephyr.a(fault.c.obj)
 .rodata._UsageFault.str1.1
                0x0000000008013386       0xd4 zephyr/libzephyr.a(fault.c.obj)
 .rodata._NanoFatalErrorHandler.str1.1
                0x000000000801345a       0xba zephyr/libzephyr.a(fatal.c.obj)
 .rodata._SysFatalErrorHandler.str1.1
                0x0000000008013514       0x5a zephyr/libzephyr.a(sys_fatal_error_handler.c.obj)
 .rodata.str1.1
                0x000000000801356e        0x1 zephyr/libzephyr.a(arm_mpu.c.obj)
 .rodata.str1.1
                0x000000000801356e        0x1 zephyr/libzephyr.a(uart_console.c.obj)
 .rodata.uart_console_init.str1.1
                0x000000000801356e        0x7 zephyr/libzephyr.a(uart_console.c.obj)
 .rodata.CSWTCH.26
                0x0000000008013575        0x7 zephyr/libzephyr.a(exti_stm32.c.obj)
 .rodata.str1.1
                0x000000000801357c        0xb zephyr/libzephyr.a(exti_stm32.c.obj)
 .rodata.str1.1
                0x0000000008013587        0x9 zephyr/libzephyr.a(stm32_ll_clock.c.obj)
 *fill*         0x0000000008013587        0x1 
 .rodata.flash_stm32_api
                0x0000000008013588       0x18 zephyr/libzephyr.a(flash_stm32.c.obj)
 .rodata.str1.1
                0x00000000080135a0        0xc zephyr/libzephyr.a(flash_stm32.c.obj)
 .rodata.stm32f4_flash_layout
                0x00000000080135ac       0x18 zephyr/libzephyr.a(flash_stm32f4x.c.obj)
 .rodata.gpio_stm32_cfg_a
                0x00000000080135c4       0x10 zephyr/libzephyr.a(gpio_stm32.c.obj)
 .rodata.gpio_stm32_cfg_b
                0x00000000080135d4       0x10 zephyr/libzephyr.a(gpio_stm32.c.obj)
 .rodata.gpio_stm32_cfg_c
                0x00000000080135e4       0x10 zephyr/libzephyr.a(gpio_stm32.c.obj)
 .rodata.gpio_stm32_cfg_d
                0x00000000080135f4       0x10 zephyr/libzephyr.a(gpio_stm32.c.obj)
 .rodata.gpio_stm32_driver
                0x0000000008013604       0x1c zephyr/libzephyr.a(gpio_stm32.c.obj)
 .rodata.gpio_stm32_init.str1.1
                0x0000000008013620        0x9 zephyr/libzephyr.a(gpio_stm32.c.obj)
 .rodata.str1.1
                0x0000000008013620       0x18 zephyr/libzephyr.a(gpio_stm32.c.obj)
 .rodata.api_funcs
                0x0000000008013638        0x8 zephyr/libzephyr.a(i2c_ll_stm32.c.obj)
 .rodata.i2c_stm32_cfg_1
                0x0000000008013640       0x10 zephyr/libzephyr.a(i2c_ll_stm32.c.obj)
 .rodata.i2c_stm32_runtime_configure.str1.1
                0x0000000008013650        0x9 zephyr/libzephyr.a(i2c_ll_stm32.c.obj)
 .rodata.str1.1
                0x0000000008013650        0x6 zephyr/libzephyr.a(i2c_ll_stm32.c.obj)
 .rodata._pinmux_stm32_set.str1.1
                0x0000000008013656        0x9 zephyr/libzephyr.a(pinmux_stm32.c.obj)
 *fill*         0x0000000008013656        0x2 
 .rodata.ports_enable
                0x0000000008013658       0x20 zephyr/libzephyr.a(pinmux_stm32.c.obj)
 .rodata.str1.1
                0x0000000008013678        0x7 zephyr/libzephyr.a(uart_stm32.c.obj)
 .rodata.uart_stm32_dev_cfg_1
                0x0000000008013678       0x10 zephyr/libzephyr.a(uart_stm32.c.obj)
 .rodata.uart_stm32_driver_api
                0x0000000008013688        0xc zephyr/libzephyr.a(uart_stm32.c.obj)
 .rodata.uart_stm32_init.str1.1
                0x0000000008013694        0x9 zephyr/libzephyr.a(uart_stm32.c.obj)
 .rodata.api_funcs
                0x0000000008013694        0xc zephyr/libzephyr.a(spi_ll_stm32.c.obj)
 .rodata.spi_stm32_cfg_1
                0x00000000080136a0       0x10 zephyr/libzephyr.a(spi_ll_stm32.c.obj)
 .rodata.spi_stm32_init.str1.1
                0x00000000080136b0        0x9 zephyr/libzephyr.a(spi_ll_stm32.c.obj)
 .rodata.str1.1
                0x00000000080136b0        0x6 zephyr/libzephyr.a(spi_ll_stm32.c.obj)
 .rodata._bt_spi_init.str1.1
                0x00000000080136b6        0xc zephyr/libzephyr.a(spi.c.obj)
 *fill*         0x00000000080136b6        0x2 
 .rodata.drv    0x00000000080136b8       0x10 zephyr/libzephyr.a(spi.c.obj)
 .rodata.str1.1
                0x00000000080136c8        0x7 zephyr/libzephyr.a(spi.c.obj)
                                          0x8 (size before relaxing)
 .rodata.str1.1
                0x00000000080136cf        0xa zephyr/libzephyr.a(sys_clock_init.c.obj)
 *fill*         0x00000000080136d9        0x3 
 .rodata.pinconf
                0x00000000080136dc       0x40 zephyr/boards/arm/96b_carbon/libboards__arm__96b_carbon.a(pinmux.c.obj)
 .rodata.str1.1
                0x000000000801371c        0x1 zephyr/boards/arm/96b_carbon/libboards__arm__96b_carbon.a(pinmux.c.obj)
 .rodata.curve_secp256r1
                0x000000000801371c       0xb0 zephyr/subsys/bluetooth/host/libsubsys__bluetooth__host.a(hci_ecc.c.obj)
 .rodata.debug_private_key
                0x00000000080137cc       0x20 zephyr/subsys/bluetooth/host/libsubsys__bluetooth__host.a(hci_ecc.c.obj)
 .rodata.uuid128_base
                0x00000000080137ec       0x11 zephyr/subsys/bluetooth/host/libsubsys__bluetooth__host.a(uuid.c.obj)
 *fill*         0x00000000080137fd        0x3 
 .rodata.CSWTCH.52
                0x0000000008013800       0x14 zephyr/subsys/bluetooth/host/libsubsys__bluetooth__host.a(att.c.obj)
 .rodata.handlers
                0x0000000008013814       0xd8 zephyr/subsys/bluetooth/host/libsubsys__bluetooth__host.a(att.c.obj)
 .rodata.read_name.str1.1
                0x00000000080138ec        0x7 zephyr/subsys/bluetooth/host/libsubsys__bluetooth__host.a(gatt.c.obj)
 .rodata.adv_type
                0x00000000080138f3        0x3 zephyr/subsys/bluetooth/host/mesh/libsubsys__bluetooth__host__mesh.a(adv.c.obj)
 *fill*         0x00000000080138f6        0x2 
 .rodata.send_cb.8114
                0x00000000080138f8        0x8 zephyr/subsys/bluetooth/host/mesh/libsubsys__bluetooth__host__mesh.a(beacon.c.obj)
 .rodata.bt_mesh_net_keys_create.str1.1
                0x0000000008013900        0xa zephyr/subsys/bluetooth/host/mesh/libsubsys__bluetooth__host__mesh.a(net.c.obj)
 *fill*         0x000000000801390a        0x2 
 .rodata.first_sent_cb
                0x000000000801390c        0x8 zephyr/subsys/bluetooth/host/mesh/libsubsys__bluetooth__host__mesh.a(transport.c.obj)
 .rodata.seg_sent_cb
                0x0000000008013914        0x8 zephyr/subsys/bluetooth/host/mesh/libsubsys__bluetooth__host__mesh.a(transport.c.obj)
 .rodata.bt_mesh_id128.str1.1
                0x000000000801391c        0x7 zephyr/subsys/bluetooth/host/mesh/libsubsys__bluetooth__host__mesh.a(crypto.c.obj)
 .rodata.bt_mesh_k2.str1.1
                0x0000000008013923        0x5 zephyr/subsys/bluetooth/host/mesh/libsubsys__bluetooth__host__mesh.a(crypto.c.obj)
 .rodata.bt_mesh_k3.str1.1
                0x0000000008013928        0x5 zephyr/subsys/bluetooth/host/mesh/libsubsys__bluetooth__host__mesh.a(crypto.c.obj)
 .rodata.bt_mesh_k4.str1.1
                0x000000000801392d        0x5 zephyr/subsys/bluetooth/host/mesh/libsubsys__bluetooth__host__mesh.a(crypto.c.obj)
 .rodata.bt_mesh_prov_conf_key.str1.1
                0x0000000008013932        0x5 zephyr/subsys/bluetooth/host/mesh/libsubsys__bluetooth__host__mesh.a(crypto.c.obj)
 .rodata.bt_mesh_virtual_addr.str1.1
                0x0000000008013937        0x5 zephyr/subsys/bluetooth/host/mesh/libsubsys__bluetooth__host__mesh.a(crypto.c.obj)
 .rodata.crc_table
                0x000000000801393c      0x100 zephyr/subsys/bluetooth/host/mesh/libsubsys__bluetooth__host__mesh.a(crypto.c.obj)
 .rodata.pub_sent_cb
                0x0000000008013a3c        0x8 zephyr/subsys/bluetooth/host/mesh/libsubsys__bluetooth__host__mesh.a(access.c.obj)
 .rodata.bt_mesh_cfg_srv_op
                0x0000000008013a44      0x240 zephyr/subsys/bluetooth/host/mesh/libsubsys__bluetooth__host__mesh.a(cfg_srv.c.obj)
                0x0000000008013a44                bt_mesh_cfg_srv_op
 .rodata.bt_mesh_health_srv_op
                0x0000000008013c84       0x90 zephyr/subsys/bluetooth/host/mesh/libsubsys__bluetooth__host__mesh.a(health_srv.c.obj)
                0x0000000008013c84                bt_mesh_health_srv_op
 .rodata.buf_sent_cb.8377
                0x0000000008013d14        0x8 zephyr/subsys/bluetooth/host/mesh/libsubsys__bluetooth__host__mesh.a(friend.c.obj)
 .rodata.clear_sent_cb
                0x0000000008013d1c        0x8 zephyr/subsys/bluetooth/host/mesh/libsubsys__bluetooth__host__mesh.a(friend.c.obj)
 .rodata.fact.8325
                0x0000000008013d24        0x4 zephyr/subsys/bluetooth/host/mesh/libsubsys__bluetooth__host__mesh.a(friend.c.obj)
 .rodata.CSWTCH.44
                0x0000000008013d28        0x5 zephyr/subsys/bluetooth/host/mesh/libsubsys__bluetooth__host__mesh.a(prov.c.obj)
 .rodata.CSWTCH.46
                0x0000000008013d2d        0x4 zephyr/subsys/bluetooth/host/mesh/libsubsys__bluetooth__host__mesh.a(prov.c.obj)
 *fill*         0x0000000008013d31        0x3 
 .rodata.cb.8268
                0x0000000008013d34        0x8 zephyr/subsys/bluetooth/host/mesh/libsubsys__bluetooth__host__mesh.a(prov.c.obj)
 .rodata.gen_prov
                0x0000000008013d3c       0x20 zephyr/subsys/bluetooth/host/mesh/libsubsys__bluetooth__host__mesh.a(prov.c.obj)
 .rodata.prov_data.str1.1
                0x0000000008013d5c        0xf zephyr/subsys/bluetooth/host/mesh/libsubsys__bluetooth__host__mesh.a(prov.c.obj)
 *fill*         0x0000000008013d6b        0x1 
 .rodata.prov_handlers
                0x0000000008013d6c       0x50 zephyr/subsys/bluetooth/host/mesh/libsubsys__bluetooth__host__mesh.a(prov.c.obj)
 .rodata.fast_adv_param
                0x0000000008013dbc        0xc zephyr/subsys/bluetooth/host/mesh/libsubsys__bluetooth__host__mesh.a(proxy.c.obj)
 .rodata.net_id_ad
                0x0000000008013dc8       0x18 zephyr/subsys/bluetooth/host/mesh/libsubsys__bluetooth__host__mesh.a(proxy.c.obj)
 .rodata.node_id_ad
                0x0000000008013de0       0x18 zephyr/subsys/bluetooth/host/mesh/libsubsys__bluetooth__host__mesh.a(proxy.c.obj)
 .rodata.prov_ad
                0x0000000008013df8       0x18 zephyr/subsys/bluetooth/host/mesh/libsubsys__bluetooth__host__mesh.a(proxy.c.obj)
 .rodata.prov_sd
                0x0000000008013e10        0x8 zephyr/subsys/bluetooth/host/mesh/libsubsys__bluetooth__host__mesh.a(proxy.c.obj)
 .rodata.slow_adv_param
                0x0000000008013e18        0xc zephyr/subsys/bluetooth/host/mesh/libsubsys__bluetooth__host__mesh.a(proxy.c.obj)
 .rodata.str1.1
                0x0000000008013e24        0x7 zephyr/subsys/bluetooth/host/mesh/libsubsys__bluetooth__host__mesh.a(proxy.c.obj)
 .rodata.config_levels
                0x0000000008013e24       0x14 zephyr/kernel/libkernel.a(device.c.obj)
 .rodata._k_neg_eagain
                0x0000000008013e38        0x4 zephyr/kernel/libkernel.a(errno.c.obj)
                0x0000000008013e38                _k_neg_eagain
 .rodata._idle_thread
                0x0000000008013e3c        0x4 zephyr/kernel/libkernel.a(init.c.obj)
                0x0000000008013e3c                _idle_thread
 .rodata.str1.1
                0x0000000008013e40        0x1 zephyr/kernel/libkernel.a(system_work_q.c.obj)
 *(.gnu.linkonce.r.*)
                0x0000000008013e44                . = ALIGN (0x4)
                0x0000000008013e44                _image_rodata_end = .
                0x0000000008013e44                _image_rom_end = .

.rel.dyn        0x0000000008013e40        0x0
 .rel.iplt      0x0000000008013e40        0x0 zephyr/CMakeFiles/kernel_elf.dir/isr_tables.c.obj

bss             0x0000000020000000     0x14f8
                0x0000000020000000                . = ALIGN (0x4)
                0x0000000020000000                __bss_start = .
                0x0000000020000000                _image_ram_start = .
                0x0000000020000000                __kernel_ram_start = .
 *(.bss)
 *(.bss.*)
 .bss.__compound_literal.6
                0x0000000020000000        0x0 libapp.a(main.c.obj)
 .bss.health_srv
                0x0000000020000000       0x30 libapp.a(main.c.obj)
 .bss.arm_mpu_enabled
                0x0000000020000030        0x1 zephyr/libzephyr.a(arm_mpu.c.obj)
 *fill*         0x0000000020000031        0x3 
 .bss.uart_console_dev
                0x0000000020000034        0x4 zephyr/libzephyr.a(uart_console.c.obj)
 .bss.exti_data
                0x0000000020000038       0xb8 zephyr/libzephyr.a(exti_stm32.c.obj)
 .bss.gpio_stm32_data_a
                0x00000000200000f0        0xc zephyr/libzephyr.a(gpio_stm32.c.obj)
 .bss.gpio_stm32_data_b
                0x00000000200000fc        0xc zephyr/libzephyr.a(gpio_stm32.c.obj)
 .bss.gpio_stm32_data_c
                0x0000000020000108        0xc zephyr/libzephyr.a(gpio_stm32.c.obj)
 .bss.gpio_stm32_data_d
                0x0000000020000114        0xc zephyr/libzephyr.a(gpio_stm32.c.obj)
 .bss.i2c_stm32_dev_data_1
                0x0000000020000120       0x28 zephyr/libzephyr.a(i2c_ll_stm32.c.obj)
 .bss.gpio_cb   0x0000000020000148        0xc zephyr/libzephyr.a(spi.c.obj)
 .bss.irq_dev   0x0000000020000154        0x4 zephyr/libzephyr.a(spi.c.obj)
 .bss.rst_dev   0x0000000020000158        0x4 zephyr/libzephyr.a(spi.c.obj)
 .bss.rx_thread_data
                0x000000002000015c       0x68 zephyr/libzephyr.a(spi.c.obj)
 .bss.rxmsg     0x00000000200001c4       0xff zephyr/libzephyr.a(spi.c.obj)
 *fill*         0x00000000200002c3        0x1 
 .bss.spi_dev   0x00000000200002c4        0x4 zephyr/libzephyr.a(spi.c.obj)
 .bss.spi_rx_buf
                0x00000000200002c8        0x8 zephyr/libzephyr.a(spi.c.obj)
 .bss.spi_tx_buf
                0x00000000200002d0        0x8 zephyr/libzephyr.a(spi.c.obj)
 .bss.txmsg     0x00000000200002d8       0xff zephyr/libzephyr.a(spi.c.obj)
 *fill*         0x00000000200003d7        0x1 
 .bss.clock_accumulated_count
                0x00000000200003d8        0x4 zephyr/libzephyr.a(cortex_m_systick.c.obj)
 .bss.ecc       0x00000000200003dc       0x60 zephyr/subsys/bluetooth/host/libsubsys__bluetooth__host.a(hci_ecc.c.obj)
 .bss.ecc_thread_data
                0x000000002000043c       0x68 zephyr/subsys/bluetooth/host/libsubsys__bluetooth__host.a(hci_ecc.c.obj)
 .bss.flags     0x00000000200004a4        0x4 zephyr/subsys/bluetooth/host/libsubsys__bluetooth__host.a(hci_ecc.c.obj)
 .bss.dh_key_cb
                0x00000000200004a8        0x4 zephyr/subsys/bluetooth/host/libsubsys__bluetooth__host.a(hci_core.c.obj)
 .bss.pub_key   0x00000000200004ac       0x40 zephyr/subsys/bluetooth/host/libsubsys__bluetooth__host.a(hci_core.c.obj)
 .bss.pub_key_cb
                0x00000000200004ec        0x4 zephyr/subsys/bluetooth/host/libsubsys__bluetooth__host.a(hci_core.c.obj)
 .bss.ready_cb  0x00000000200004f0        0x4 zephyr/subsys/bluetooth/host/libsubsys__bluetooth__host.a(hci_core.c.obj)
 .bss.rx_thread_data
                0x00000000200004f4       0x68 zephyr/subsys/bluetooth/host/libsubsys__bluetooth__host.a(hci_core.c.obj)
 .bss.scan_dev_found_cb
                0x000000002000055c        0x4 zephyr/subsys/bluetooth/host/libsubsys__bluetooth__host.a(hci_core.c.obj)
 .bss.tx_thread_data
                0x0000000020000560       0x68 zephyr/subsys/bluetooth/host/libsubsys__bluetooth__host.a(hci_core.c.obj)
 .bss.prng      0x00000000200005c8      0x138 zephyr/subsys/bluetooth/host/libsubsys__bluetooth__host.a(crypto.c.obj)
 .bss.callback_list
                0x0000000020000700        0x4 zephyr/subsys/bluetooth/host/libsubsys__bluetooth__host.a(conn.c.obj)
 .bss.conn_tx   0x0000000020000704       0x38 zephyr/subsys/bluetooth/host/libsubsys__bluetooth__host.a(conn.c.obj)
 .bss.conns     0x000000002000073c       0x98 zephyr/subsys/bluetooth/host/libsubsys__bluetooth__host.a(conn.c.obj)
 .bss.free_tx   0x00000000200007d4        0x8 zephyr/subsys/bluetooth/host/libsubsys__bluetooth__host.a(conn.c.obj)
 .bss.bt_l2cap_pool
                0x00000000200007dc       0x94 zephyr/subsys/bluetooth/host/libsubsys__bluetooth__host.a(l2cap.c.obj)
 .bss.ident.7822
                0x0000000020000870        0x1 zephyr/subsys/bluetooth/host/libsubsys__bluetooth__host.a(l2cap.c.obj)
 *fill*         0x0000000020000871        0x3 
 .bss.le_channels
                0x0000000020000874        0x8 zephyr/subsys/bluetooth/host/libsubsys__bluetooth__host.a(l2cap.c.obj)
 .bss.bt_req_pool
                0x000000002000087c       0xe4 zephyr/subsys/bluetooth/host/libsubsys__bluetooth__host.a(att.c.obj)
 .bss.db        0x0000000020000960        0x8 zephyr/subsys/bluetooth/host/libsubsys__bluetooth__host.a(gatt.c.obj)
 .bss.gatt_sc   0x0000000020000968       0x54 zephyr/subsys/bluetooth/host/libsubsys__bluetooth__host.a(gatt.c.obj)
 .bss.sc_ccc_cfg
                0x00000000200009bc       0x10 zephyr/subsys/bluetooth/host/libsubsys__bluetooth__host.a(gatt.c.obj)
 .bss.bt_smp_pool
                0x00000000200009cc       0x94 zephyr/subsys/bluetooth/host/libsubsys__bluetooth__host.a(smp_null.c.obj)
 .bss.provisioned
                0x0000000020000a60        0x1 zephyr/subsys/bluetooth/host/mesh/libsubsys__bluetooth__host__mesh.a(main.c.obj)
 *fill*         0x0000000020000a61        0x3 
 .bss.adv_pool  0x0000000020000a64       0xf0 zephyr/subsys/bluetooth/host/mesh/libsubsys__bluetooth__host__mesh.a(adv.c.obj)
 .bss.adv_thread_data
                0x0000000020000b54       0x68 zephyr/subsys/bluetooth/host/mesh/libsubsys__bluetooth__host__mesh.a(adv.c.obj)
 .bss.beacon_timer
                0x0000000020000bbc       0x28 zephyr/subsys/bluetooth/host/mesh/libsubsys__bluetooth__host__mesh.a(beacon.c.obj)
 .bss.first_half.8131
                0x0000000020000be4        0x1 zephyr/subsys/bluetooth/host/mesh/libsubsys__bluetooth__host__mesh.a(beacon.c.obj)
 *fill*         0x0000000020000be5        0x3 
 .bss.dup_cache
                0x0000000020000be8       0x10 zephyr/subsys/bluetooth/host/mesh/libsubsys__bluetooth__host__mesh.a(net.c.obj)
 .bss.dup_cache_next
                0x0000000020000bf8        0x4 zephyr/subsys/bluetooth/host/mesh/libsubsys__bluetooth__host__mesh.a(net.c.obj)
 .bss.friend_cred
                0x0000000020000bfc       0x94 zephyr/subsys/bluetooth/host/mesh/libsubsys__bluetooth__host__mesh.a(net.c.obj)
 .bss.msg_cache
                0x0000000020000c90       0x50 zephyr/subsys/bluetooth/host/mesh/libsubsys__bluetooth__host__mesh.a(net.c.obj)
 .bss.msg_cache_next
                0x0000000020000ce0        0x2 zephyr/subsys/bluetooth/host/mesh/libsubsys__bluetooth__host__mesh.a(net.c.obj)
 .bss.hb_sub_dst
                0x0000000020000ce2        0x2 zephyr/subsys/bluetooth/host/mesh/libsubsys__bluetooth__host__mesh.a(transport.c.obj)
 *fill*         0x0000000020000ce4        0x4 
 .bss.seg_tx    0x0000000020000ce8       0x88 zephyr/subsys/bluetooth/host/mesh/libsubsys__bluetooth__host__mesh.a(transport.c.obj)
 .bss.dev_comp  0x0000000020000d70        0x4 zephyr/subsys/bluetooth/host/mesh/libsubsys__bluetooth__host__mesh.a(access.c.obj)
 .bss.dev_primary_addr
                0x0000000020000d74        0x2 zephyr/subsys/bluetooth/host/mesh/libsubsys__bluetooth__host__mesh.a(access.c.obj)
 *fill*         0x0000000020000d76        0x2 
 .bss.conf      0x0000000020000d78        0x4 zephyr/subsys/bluetooth/host/mesh/libsubsys__bluetooth__host__mesh.a(cfg_srv.c.obj)
 .bss.labels    0x0000000020000d7c       0x36 zephyr/subsys/bluetooth/host/mesh/libsubsys__bluetooth__host__mesh.a(cfg_srv.c.obj)
 *fill*         0x0000000020000db2        0x6 
 .bss.adv_pool  0x0000000020000db8      0x330 zephyr/subsys/bluetooth/host/mesh/libsubsys__bluetooth__host__mesh.a(friend.c.obj)
 .bss.link      0x00000000200010e8      0x170 zephyr/subsys/bluetooth/host/mesh/libsubsys__bluetooth__host__mesh.a(prov.c.obj)
 .bss.prov      0x0000000020001258        0x4 zephyr/subsys/bluetooth/host/mesh/libsubsys__bluetooth__host__mesh.a(prov.c.obj)
 .bss.conn_count
                0x000000002000125c        0x4 zephyr/subsys/bluetooth/host/mesh/libsubsys__bluetooth__host__mesh.a(proxy.c.obj)
 .bss.gatt_svc  0x0000000020001260        0x1 zephyr/subsys/bluetooth/host/mesh/libsubsys__bluetooth__host__mesh.a(proxy.c.obj)
 *fill*         0x0000000020001261        0x3 
 .bss.next_idx  0x0000000020001264        0x4 zephyr/subsys/bluetooth/host/mesh/libsubsys__bluetooth__host__mesh.a(proxy.c.obj)
 .bss.prov_ccc_val
                0x0000000020001268        0x2 zephyr/subsys/bluetooth/host/mesh/libsubsys__bluetooth__host__mesh.a(proxy.c.obj)
 .bss.prov_fast_adv
                0x000000002000126a        0x1 zephyr/subsys/bluetooth/host/mesh/libsubsys__bluetooth__host__mesh.a(proxy.c.obj)
 .bss.proxy_adv_enabled
                0x000000002000126b        0x1 zephyr/subsys/bluetooth/host/mesh/libsubsys__bluetooth__host__mesh.a(proxy.c.obj)
 .bss.proxy_ccc_val
                0x000000002000126c        0x2 zephyr/subsys/bluetooth/host/mesh/libsubsys__bluetooth__host__mesh.a(proxy.c.obj)
 *fill*         0x000000002000126e        0x2 
 .bss._idle_thread_s
                0x0000000020001270       0x68 zephyr/kernel/libkernel.a(init.c.obj)
 .bss._main_thread_s
                0x00000000200012d8       0x68 zephyr/kernel/libkernel.a(init.c.obj)
 .bss._kernel   0x0000000020001340      0x11c zephyr/kernel/libkernel.a(sched.c.obj)
                0x0000000020001340                _kernel
 .bss._time_slice_duration
                0x000000002000145c        0x4 zephyr/kernel/libkernel.a(sys_clock.c.obj)
                0x000000002000145c                _time_slice_duration
 .bss._time_slice_prio_ceiling
                0x0000000020001460        0x4 zephyr/kernel/libkernel.a(sys_clock.c.obj)
                0x0000000020001460                _time_slice_prio_ceiling
 *(COMMON)
 COMMON         0x0000000020001464        0x4 zephyr/subsys/bluetooth/host/libsubsys__bluetooth__host.a(hci_core.c.obj)
                0x0000000020001464                bt_storage
 COMMON         0x0000000020001468        0x4 zephyr/subsys/bluetooth/host/mesh/libsubsys__bluetooth__host__mesh.a(health_srv.c.obj)
                0x0000000020001468                health_srv
 *fill*         0x000000002000146c        0x4 
 COMMON         0x0000000020001470       0x10 zephyr/kernel/libkernel.a(sys_clock.c.obj)
                0x0000000020001470                _handling_timeouts
                0x0000000020001474                _time_slice_elapsed
                0x0000000020001478                _sys_clock_tick_count
 COMMON         0x0000000020001480       0x78 zephyr/kernel/libkernel.a(system_work_q.c.obj)
                0x0000000020001480                k_sys_work_q
 *(.kernel_bss.*)
                0x00000000200014f8                __bss_end = ALIGN (0x4)

noinit          0x00000000200014f8     0x4170
 *(.noinit)
 *(.noinit.*)
 .noinit."/home/josh/zephyr-mani/drivers/bluetooth/hci/spi.c".0
                0x00000000200014f8      0x1c0 zephyr/libzephyr.a(spi.c.obj)
 .noinit."/home/josh/zephyr-mani/subsys/bluetooth/host/hci_ecc.c".0
                0x00000000200016b8      0x400 zephyr/subsys/bluetooth/host/libsubsys__bluetooth__host.a(hci_ecc.c.obj)
 .noinit."/home/josh/zephyr-mani/subsys/bluetooth/host/hci_core.c".0
                0x0000000020001ab8      0x800 zephyr/subsys/bluetooth/host/libsubsys__bluetooth__host.a(hci_core.c.obj)
 .noinit."/home/josh/zephyr-mani/subsys/bluetooth/host/hci_core.c".1
                0x00000000200022b8      0x1a0 zephyr/subsys/bluetooth/host/libsubsys__bluetooth__host.a(hci_core.c.obj)
 .noinit."/home/josh/zephyr-mani/subsys/bluetooth/host/hci_core.c".2
                0x0000000020002458       0xd0 zephyr/subsys/bluetooth/host/libsubsys__bluetooth__host.a(hci_core.c.obj)
 .noinit."/home/josh/zephyr-mani/subsys/bluetooth/host/hci_core.c".3
                0x0000000020002528      0xbb8 zephyr/subsys/bluetooth/host/libsubsys__bluetooth__host.a(hci_core.c.obj)
 .noinit."/home/josh/zephyr-mani/subsys/bluetooth/host/hci_core.c".4
                0x00000000200030e0      0x258 zephyr/subsys/bluetooth/host/libsubsys__bluetooth__host.a(hci_core.c.obj)
 .noinit."/home/josh/zephyr-mani/subsys/bluetooth/host/conn.c".0
                0x0000000020003338      0x1f4 zephyr/subsys/bluetooth/host/libsubsys__bluetooth__host.a(conn.c.obj)
 *fill*         0x000000002000352c        0x4 
 .noinit."/home/josh/zephyr-mani/subsys/bluetooth/host/mesh/adv.c".0
                0x0000000020003530      0x300 zephyr/subsys/bluetooth/host/mesh/libsubsys__bluetooth__host__mesh.a(adv.c.obj)
 .noinit."/home/josh/zephyr-mani/subsys/bluetooth/host/mesh/adv.c".1
                0x0000000020003830      0x410 zephyr/subsys/bluetooth/host/mesh/libsubsys__bluetooth__host__mesh.a(adv.c.obj)
 .noinit."/home/josh/zephyr-mani/subsys/bluetooth/host/mesh/friend.c".0
                0x0000000020003c40      0x6e8 zephyr/subsys/bluetooth/host/mesh/libsubsys__bluetooth__host__mesh.a(friend.c.obj)
 .noinit."/home/josh/zephyr-mani/kernel/init.c".1
                0x0000000020004328      0x200 zephyr/kernel/libkernel.a(init.c.obj)
                0x0000000020004328                _main_stack
 .noinit."/home/josh/zephyr-mani/kernel/init.c".2
                0x0000000020004528      0x140 zephyr/kernel/libkernel.a(init.c.obj)
                0x0000000020004528                _idle_stack
 .noinit."/home/josh/zephyr-mani/kernel/init.c".3
                0x0000000020004668      0x800 zephyr/kernel/libkernel.a(init.c.obj)
                0x0000000020004668                _interrupt_stack
 .noinit."/home/josh/zephyr-mani/kernel/system_work_q.c".0
                0x0000000020004e68      0x800 zephyr/kernel/libkernel.a(system_work_q.c.obj)
                0x0000000020004e68                sys_work_q_stack
 *(.kernel_noinit.*)

datas           0x0000000020005668      0xd40 load address 0x0000000008013e40
                0x0000000020005668                __data_ram_start = .
 *(.data)
 *(.data.*)
 .data.__compound_literal.0
                0x0000000020005668        0xc libapp.a(main.c.obj)
 .data.__compound_literal.1
                0x0000000020005674        0xc libapp.a(main.c.obj)
 .data.cfg_srv  0x0000000020005680       0x58 libapp.a(main.c.obj)
 .data.elements
                0x00000000200056d8       0x10 libapp.a(main.c.obj)
 .data.health_pub
                0x00000000200056e8       0x40 libapp.a(main.c.obj)
 .data.root_models
                0x0000000020005728       0x54 libapp.a(main.c.obj)
 .data.temp_srv_pub
                0x000000002000577c       0x40 libapp.a(main.c.obj)
 .data._char_out
                0x00000000200057bc        0x4 zephyr/libzephyr.a(printk.c.obj)
 .data.g_rng_function
                0x00000000200057c0        0x4 zephyr/libzephyr.a(ecc.c.obj)
 .data.SystemCoreClock
                0x00000000200057c4        0x4 zephyr/libzephyr.a(system_stm32f4xx.c.obj)
                0x00000000200057c4                SystemCoreClock
 .data.mpu_config
                0x00000000200057c8        0x8 zephyr/libzephyr.a(arm_mpu_regions.c.obj)
                0x00000000200057c8                mpu_config
 .data.mpu_regions
                0x00000000200057d0       0x3c zephyr/libzephyr.a(arm_mpu_regions.c.obj)
 .data.stm32_clock_control_api
                0x000000002000580c        0xc zephyr/libzephyr.a(stm32_ll_clock.c.obj)
 .data.flash_data
                0x0000000020005818       0x1c zephyr/libzephyr.a(flash_stm32.c.obj)
 .data.uart_stm32_dev_data_1
                0x0000000020005834       0x44 zephyr/libzephyr.a(uart_stm32.c.obj)
 .data.spi_stm32_dev_data_1
                0x0000000020005878       0x60 zephyr/libzephyr.a(spi_ll_stm32.c.obj)
 .data.spi_conf
                0x00000000200058d8       0x10 zephyr/libzephyr.a(spi.c.obj)
 .data.bt_dev   0x00000000200058e8       0xf8 zephyr/subsys/bluetooth/host/libsubsys__bluetooth__host.a(hci_core.c.obj)
                0x00000000200058e8                bt_dev
 .data.events.14407
                0x00000000200059e0       0x50 zephyr/subsys/bluetooth/host/libsubsys__bluetooth__host.a(hci_core.c.obj)
 .data.conn_change
                0x0000000020005a30       0x10 zephyr/subsys/bluetooth/host/libsubsys__bluetooth__host.a(conn.c.obj)
 .data.chan.7976
                0x0000000020005a40        0xc zephyr/subsys/bluetooth/host/libsubsys__bluetooth__host.a(l2cap.c.obj)
 .data.ops.7967
                0x0000000020005a4c       0x14 zephyr/subsys/bluetooth/host/libsubsys__bluetooth__host.a(l2cap.c.obj)
 .data.chan.8804
                0x0000000020005a60        0xc zephyr/subsys/bluetooth/host/libsubsys__bluetooth__host.a(att.c.obj)
 .data.ops.8795
                0x0000000020005a6c       0x14 zephyr/subsys/bluetooth/host/libsubsys__bluetooth__host.a(att.c.obj)
 .data.__compound_literal.0
                0x0000000020005a80        0x4 zephyr/subsys/bluetooth/host/libsubsys__bluetooth__host.a(gatt.c.obj)
 .data.__compound_literal.1
                0x0000000020005a84        0x4 zephyr/subsys/bluetooth/host/libsubsys__bluetooth__host.a(gatt.c.obj)
 .data.__compound_literal.10
                0x0000000020005a88        0x4 zephyr/subsys/bluetooth/host/libsubsys__bluetooth__host.a(gatt.c.obj)
 .data.__compound_literal.11
                0x0000000020005a8c        0x4 zephyr/subsys/bluetooth/host/libsubsys__bluetooth__host.a(gatt.c.obj)
 .data.__compound_literal.12
                0x0000000020005a90        0x4 zephyr/subsys/bluetooth/host/libsubsys__bluetooth__host.a(gatt.c.obj)
 .data.__compound_literal.13
                0x0000000020005a94        0x4 zephyr/subsys/bluetooth/host/libsubsys__bluetooth__host.a(gatt.c.obj)
 .data.__compound_literal.14
                0x0000000020005a98        0x8 zephyr/subsys/bluetooth/host/libsubsys__bluetooth__host.a(gatt.c.obj)
 .data.__compound_literal.15
                0x0000000020005aa0        0x4 zephyr/subsys/bluetooth/host/libsubsys__bluetooth__host.a(gatt.c.obj)
 .data.__compound_literal.16
                0x0000000020005aa4        0x4 zephyr/subsys/bluetooth/host/libsubsys__bluetooth__host.a(gatt.c.obj)
 .data.__compound_literal.17
                0x0000000020005aa8       0x10 zephyr/subsys/bluetooth/host/libsubsys__bluetooth__host.a(gatt.c.obj)
 .data.__compound_literal.2
                0x0000000020005ab8        0x4 zephyr/subsys/bluetooth/host/libsubsys__bluetooth__host.a(gatt.c.obj)
 .data.__compound_literal.3
                0x0000000020005abc        0x4 zephyr/subsys/bluetooth/host/libsubsys__bluetooth__host.a(gatt.c.obj)
 .data.__compound_literal.4
                0x0000000020005ac0        0x8 zephyr/subsys/bluetooth/host/libsubsys__bluetooth__host.a(gatt.c.obj)
 .data.__compound_literal.5
                0x0000000020005ac8        0x4 zephyr/subsys/bluetooth/host/libsubsys__bluetooth__host.a(gatt.c.obj)
 .data.__compound_literal.6
                0x0000000020005acc        0x4 zephyr/subsys/bluetooth/host/libsubsys__bluetooth__host.a(gatt.c.obj)
 .data.__compound_literal.7
                0x0000000020005ad0        0x4 zephyr/subsys/bluetooth/host/libsubsys__bluetooth__host.a(gatt.c.obj)
 .data.__compound_literal.8
                0x0000000020005ad4        0x8 zephyr/subsys/bluetooth/host/libsubsys__bluetooth__host.a(gatt.c.obj)
 .data.__compound_literal.9
                0x0000000020005adc        0x4 zephyr/subsys/bluetooth/host/libsubsys__bluetooth__host.a(gatt.c.obj)
 .data.gap_attrs
                0x0000000020005ae0       0x64 zephyr/subsys/bluetooth/host/libsubsys__bluetooth__host.a(gatt.c.obj)
 .data.gap_svc  0x0000000020005b44        0xc zephyr/subsys/bluetooth/host/libsubsys__bluetooth__host.a(gatt.c.obj)
 .data.gatt_attrs
                0x0000000020005b50       0x50 zephyr/subsys/bluetooth/host/libsubsys__bluetooth__host.a(gatt.c.obj)
 .data.gatt_svc
                0x0000000020005ba0        0xc zephyr/subsys/bluetooth/host/libsubsys__bluetooth__host.a(gatt.c.obj)
 .data.chan.7825
                0x0000000020005bac        0xc zephyr/subsys/bluetooth/host/libsubsys__bluetooth__host.a(smp_null.c.obj)
 .data.ops.7816
                0x0000000020005bb8       0x14 zephyr/subsys/bluetooth/host/libsubsys__bluetooth__host.a(smp_null.c.obj)
 *fill*         0x0000000020005bcc        0x4 
 .data.bt_mesh  0x0000000020005bd0      0x3d0 zephyr/subsys/bluetooth/host/mesh/libsubsys__bluetooth__host__mesh.a(net.c.obj)
                0x0000000020005bd0                bt_mesh
 .data.seg_rx   0x0000000020005fa0      0x1d0 zephyr/subsys/bluetooth/host/mesh/libsubsys__bluetooth__host__mesh.a(transport.c.obj)
 .data.buf_sent_cb
                0x0000000020006170        0x8 zephyr/subsys/bluetooth/host/mesh/libsubsys__bluetooth__host__mesh.a(prov.c.obj)
 .data.pending_ack
                0x0000000020006178        0x1 zephyr/subsys/bluetooth/host/mesh/libsubsys__bluetooth__host__mesh.a(prov.c.obj)
 *fill*         0x0000000020006179        0x3 
 .data.pub_key_cb.8544
                0x000000002000617c        0x8 zephyr/subsys/bluetooth/host/mesh/libsubsys__bluetooth__host__mesh.a(prov.c.obj)
 .data.__compound_literal.0
                0x0000000020006184        0x4 zephyr/subsys/bluetooth/host/mesh/libsubsys__bluetooth__host__mesh.a(proxy.c.obj)
 .data.__compound_literal.1
                0x0000000020006188        0x4 zephyr/subsys/bluetooth/host/mesh/libsubsys__bluetooth__host__mesh.a(proxy.c.obj)
 .data.__compound_literal.10
                0x000000002000618c        0x4 zephyr/subsys/bluetooth/host/mesh/libsubsys__bluetooth__host__mesh.a(proxy.c.obj)
 .data.__compound_literal.11
                0x0000000020006190        0x4 zephyr/subsys/bluetooth/host/mesh/libsubsys__bluetooth__host__mesh.a(proxy.c.obj)
 .data.__compound_literal.12
                0x0000000020006194        0x4 zephyr/subsys/bluetooth/host/mesh/libsubsys__bluetooth__host__mesh.a(proxy.c.obj)
 .data.__compound_literal.13
                0x0000000020006198        0x4 zephyr/subsys/bluetooth/host/mesh/libsubsys__bluetooth__host__mesh.a(proxy.c.obj)
 .data.__compound_literal.14
                0x000000002000619c        0x4 zephyr/subsys/bluetooth/host/mesh/libsubsys__bluetooth__host__mesh.a(proxy.c.obj)
 .data.__compound_literal.15
                0x00000000200061a0        0x8 zephyr/subsys/bluetooth/host/mesh/libsubsys__bluetooth__host__mesh.a(proxy.c.obj)
 .data.__compound_literal.16
                0x00000000200061a8        0x4 zephyr/subsys/bluetooth/host/mesh/libsubsys__bluetooth__host__mesh.a(proxy.c.obj)
 .data.__compound_literal.17
                0x00000000200061ac        0x4 zephyr/subsys/bluetooth/host/mesh/libsubsys__bluetooth__host__mesh.a(proxy.c.obj)
 .data.__compound_literal.18
                0x00000000200061b0        0x4 zephyr/subsys/bluetooth/host/mesh/libsubsys__bluetooth__host__mesh.a(proxy.c.obj)
 .data.__compound_literal.19
                0x00000000200061b4        0x8 zephyr/subsys/bluetooth/host/mesh/libsubsys__bluetooth__host__mesh.a(proxy.c.obj)
 .data.__compound_literal.2
                0x00000000200061bc        0x4 zephyr/subsys/bluetooth/host/mesh/libsubsys__bluetooth__host__mesh.a(proxy.c.obj)
 .data.__compound_literal.20
                0x00000000200061c0        0x4 zephyr/subsys/bluetooth/host/mesh/libsubsys__bluetooth__host__mesh.a(proxy.c.obj)
 .data.__compound_literal.21
                0x00000000200061c4        0x4 zephyr/subsys/bluetooth/host/mesh/libsubsys__bluetooth__host__mesh.a(proxy.c.obj)
 .data.__compound_literal.23
                0x00000000200061c8        0x1 zephyr/subsys/bluetooth/host/mesh/libsubsys__bluetooth__host__mesh.a(proxy.c.obj)
 .data.__compound_literal.25
                0x00000000200061c9        0x2 zephyr/subsys/bluetooth/host/mesh/libsubsys__bluetooth__host__mesh.a(proxy.c.obj)
 .data.__compound_literal.27
                0x00000000200061cb        0x1 zephyr/subsys/bluetooth/host/mesh/libsubsys__bluetooth__host__mesh.a(proxy.c.obj)
 .data.__compound_literal.29
                0x00000000200061cc        0x2 zephyr/subsys/bluetooth/host/mesh/libsubsys__bluetooth__host__mesh.a(proxy.c.obj)
 .data.__compound_literal.3
                0x00000000200061ce        0x4 zephyr/subsys/bluetooth/host/mesh/libsubsys__bluetooth__host__mesh.a(proxy.c.obj)
 .data.__compound_literal.31
                0x00000000200061d2        0x1 zephyr/subsys/bluetooth/host/mesh/libsubsys__bluetooth__host__mesh.a(proxy.c.obj)
 .data.__compound_literal.33
                0x00000000200061d3        0x2 zephyr/subsys/bluetooth/host/mesh/libsubsys__bluetooth__host__mesh.a(proxy.c.obj)
 *fill*         0x00000000200061d5        0x3 
 .data.__compound_literal.4
                0x00000000200061d8        0x8 zephyr/subsys/bluetooth/host/mesh/libsubsys__bluetooth__host__mesh.a(proxy.c.obj)
 .data.__compound_literal.5
                0x00000000200061e0        0x4 zephyr/subsys/bluetooth/host/mesh/libsubsys__bluetooth__host__mesh.a(proxy.c.obj)
 .data.__compound_literal.6
                0x00000000200061e4        0x4 zephyr/subsys/bluetooth/host/mesh/libsubsys__bluetooth__host__mesh.a(proxy.c.obj)
 .data.__compound_literal.7
                0x00000000200061e8        0x4 zephyr/subsys/bluetooth/host/mesh/libsubsys__bluetooth__host__mesh.a(proxy.c.obj)
 .data.__compound_literal.8
                0x00000000200061ec        0x8 zephyr/subsys/bluetooth/host/mesh/libsubsys__bluetooth__host__mesh.a(proxy.c.obj)
 .data.__compound_literal.9
                0x00000000200061f4        0x4 zephyr/subsys/bluetooth/host/mesh/libsubsys__bluetooth__host__mesh.a(proxy.c.obj)
 .data.clients  0x00000000200061f8       0x64 zephyr/subsys/bluetooth/host/mesh/libsubsys__bluetooth__host__mesh.a(proxy.c.obj)
 .data.conn_callbacks
                0x000000002000625c       0x14 zephyr/subsys/bluetooth/host/mesh/libsubsys__bluetooth__host__mesh.a(proxy.c.obj)
 .data.prov_attrs
                0x0000000020006270       0x78 zephyr/subsys/bluetooth/host/mesh/libsubsys__bluetooth__host__mesh.a(proxy.c.obj)
 .data.prov_svc
                0x00000000200062e8        0xc zephyr/subsys/bluetooth/host/mesh/libsubsys__bluetooth__host__mesh.a(proxy.c.obj)
 .data.prov_svc_data
                0x00000000200062f4       0x14 zephyr/subsys/bluetooth/host/mesh/libsubsys__bluetooth__host__mesh.a(proxy.c.obj)
 .data.proxy_attrs
                0x0000000020006308       0x78 zephyr/subsys/bluetooth/host/mesh/libsubsys__bluetooth__host__mesh.a(proxy.c.obj)
 .data.proxy_svc
                0x0000000020006380        0xc zephyr/subsys/bluetooth/host/mesh/libsubsys__bluetooth__host__mesh.a(proxy.c.obj)
 .data.proxy_svc_data
                0x000000002000638c       0x13 zephyr/subsys/bluetooth/host/mesh/libsubsys__bluetooth__host__mesh.a(proxy.c.obj)
 *fill*         0x000000002000639f        0x1 
 .data._sys_idle_elapsed_ticks
                0x00000000200063a0        0x4 zephyr/kernel/libkernel.a(sys_clock.c.obj)
                0x00000000200063a0                _sys_idle_elapsed_ticks
 .data.sys_clock_hw_cycles_per_tick
                0x00000000200063a4        0x4 zephyr/kernel/libkernel.a(sys_clock.c.obj)
                0x00000000200063a4                sys_clock_hw_cycles_per_tick
 *(.kernel.*)
                0x0000000008013e40                __data_rom_start = LOADADDR (datas)

initlevel       0x00000000200063a8       0xcc load address 0x0000000008014b80
                0x00000000200063a8                __device_init_start = .
                0x00000000200063a8                __device_PRE_KERNEL_1_start = .
 *(SORT(.init_PRE_KERNEL_1[0-9]))
 .init_PRE_KERNEL_10
                0x00000000200063a8        0xc zephyr/libzephyr.a(soc.c.obj)
 .init_PRE_KERNEL_11
                0x00000000200063b4        0xc zephyr/libzephyr.a(stm32_ll_clock.c.obj)
 .init_PRE_KERNEL_12
                0x00000000200063c0        0xc zephyr/boards/arm/96b_carbon/libboards__arm__96b_carbon.a(pinmux.c.obj)
 *(SORT(.init_PRE_KERNEL_1[1-9][0-9]))
 .init_PRE_KERNEL_140
                0x00000000200063cc        0xc zephyr/libzephyr.a(arm_mpu.c.obj)
 .init_PRE_KERNEL_150
                0x00000000200063d8        0xc zephyr/libzephyr.a(exti_stm32.c.obj)
 .init_PRE_KERNEL_150
                0x00000000200063e4        0xc zephyr/libzephyr.a(uart_stm32.c.obj)
                0x00000000200063f0                __device_PRE_KERNEL_2_start = .
 *(SORT(.init_PRE_KERNEL_2[0-9]))
 .init_PRE_KERNEL_20
                0x00000000200063f0        0xc zephyr/libzephyr.a(sys_clock_init.c.obj)
 *(SORT(.init_PRE_KERNEL_2[1-9][0-9]))
                0x00000000200063fc                __device_POST_KERNEL_start = .
 *(SORT(.init_POST_KERNEL[0-9]))
 *(SORT(.init_POST_KERNEL[1-9][0-9]))
 .init_POST_KERNEL40
                0x00000000200063fc        0xc zephyr/kernel/libkernel.a(system_work_q.c.obj)
 .init_POST_KERNEL50
                0x0000000020006408        0xc zephyr/libzephyr.a(flash_stm32.c.obj)
 .init_POST_KERNEL50
                0x0000000020006414       0x30 zephyr/libzephyr.a(gpio_stm32.c.obj)
 .init_POST_KERNEL50
                0x0000000020006444        0xc zephyr/libzephyr.a(i2c_ll_stm32.c.obj)
 .init_POST_KERNEL50
                0x0000000020006450        0xc zephyr/libzephyr.a(spi.c.obj)
 .init_POST_KERNEL60
                0x000000002000645c        0xc zephyr/libzephyr.a(uart_console.c.obj)
 .init_POST_KERNEL70
                0x0000000020006468        0xc zephyr/libzephyr.a(spi_ll_stm32.c.obj)
                0x0000000020006474                __device_APPLICATION_start = .
 *(SORT(.init_APPLICATION[0-9]))
 *(SORT(.init_APPLICATION[1-9][0-9]))
                0x0000000020006474                __device_init_end = .

initlevel_error
                0x00000000200063a8        0x0
 *(SORT(.init_[_A-Z0-9]*))
                0x0000000000000001                ASSERT ((SIZEOF (initlevel_error) == 0x0), Undefined initialization levels used.)

initshell       0x0000000020006474        0x0 load address 0x0000000008014c4c
                0x0000000020006474                __shell_cmd_start = .
 *(.shell_*)
                0x0000000020006474                __shell_cmd_end = .

_static_thread_area
                0x0000000020006474        0x0 load address 0x0000000008014c4c
                0x0000000020006474                _static_thread_data_list_start = .
 *(SORT(._static_thread_data.static.*))
                0x0000000020006474                _static_thread_data_list_end = .

_k_timer_area   0x0000000020006474        0x0 load address 0x0000000008014c4c
                0x0000000020006474                _k_timer_list_start = .
 *(SORT(._k_timer.static.*))
                0x0000000020006474                _k_timer_list_end = .

_k_mem_slab_area
                0x0000000020006474        0x0 load address 0x0000000008014c4c
                0x0000000020006474                _k_mem_slab_list_start = .
 *(SORT(._k_mem_slab.static.*))
                0x0000000020006474                _k_mem_slab_list_end = .

_k_mem_pool_area
                0x0000000020006474        0x0 load address 0x0000000008014c4c
 *(SORT(._k_memory_pool.struct*))
                0x0000000020006474                _k_mem_pool_list_start = .
 *(SORT(._k_mem_pool.static.*))
                0x0000000020006474                _k_mem_pool_list_end = .

_k_sem_area     0x0000000020006474       0x60 load address 0x0000000008014c4c
                0x0000000020006474                _k_sem_list_start = .
 *(SORT(._k_sem.static.*))
 ._k_sem.static.cmd_sem
                0x0000000020006474       0x18 zephyr/subsys/bluetooth/host/libsubsys__bluetooth__host.a(hci_ecc.c.obj)
 ._k_sem.static.sem_busy
                0x000000002000648c       0x18 zephyr/libzephyr.a(spi.c.obj)
 ._k_sem.static.sem_initialised
                0x00000000200064a4       0x18 zephyr/libzephyr.a(spi.c.obj)
 ._k_sem.static.sem_request
                0x00000000200064bc       0x18 zephyr/libzephyr.a(spi.c.obj)
                0x00000000200064d4                _k_sem_list_end = .

_k_mutex_area   0x00000000200064d4        0x0 load address 0x0000000008014cac
                0x00000000200064d4                _k_mutex_list_start = .
 *(SORT(._k_mutex.static.*))
                0x00000000200064d4                _k_mutex_list_end = .

_k_alert_area   0x00000000200064d4        0x0 load address 0x0000000008014cac
                0x00000000200064d4                _k_alert_list_start = .
 *(SORT(._k_alert.static.*))
                0x00000000200064d4                _k_alert_list_end = .

_k_queue_area   0x00000000200064d4       0x10 load address 0x0000000008014cac
                0x00000000200064d4                _k_queue_list_start = .
 *(SORT(._k_queue.static.*))
 ._k_queue.static.adv_queue
                0x00000000200064d4       0x10 zephyr/subsys/bluetooth/host/mesh/libsubsys__bluetooth__host__mesh.a(adv.c.obj)
                0x00000000200064e4                _k_queue_list_end = .

_k_stack_area   0x00000000200064e4        0x0 load address 0x0000000008014cbc
                0x00000000200064e4                _k_stack_list_start = .
 *(SORT(._k_stack.static.*))
                0x00000000200064e4                _k_stack_list_end = .

_k_msgq_area    0x00000000200064e4        0x0 load address 0x0000000008014cbc
                0x00000000200064e4                _k_msgq_list_start = .
 *(SORT(._k_msgq.static.*))
                0x00000000200064e4                _k_msgq_list_end = .

_k_mbox_area    0x00000000200064e4        0x0 load address 0x0000000008014cbc
                0x00000000200064e4                _k_mbox_list_start = .
 *(SORT(._k_mbox.static.*))
                0x00000000200064e4                _k_mbox_list_end = .

_k_pipe_area    0x00000000200064e4        0x0 load address 0x0000000008014cbc
                0x00000000200064e4                _k_pipe_list_start = .
 *(SORT(._k_pipe.static.*))
                0x00000000200064e4                _k_pipe_list_end = .

_k_work_area    0x00000000200064e4        0x0 load address 0x0000000008014cbc
                0x00000000200064e4                _k_work_list_start = .
 *(SORT(._k_work.static.*))
                0x00000000200064e4                _k_work_list_end = .

_k_task_list    0x00000000200064e4        0x0 load address 0x0000000008014cbc
                0x00000000200064e4                _k_task_list_start = .
 *(._k_task_list.public.*)
 *(._k_task_list.private.*)
                0x00000000200064e4                _k_task_list_idle_start = .
 *(._k_task_list.idle.*)
 *(SORT(._k_task_list*))
                0x00000000200064e4                _k_task_list_end = .

_k_event_list   0x00000000200064e4        0x0 load address 0x0000000008014cbc
                0x00000000200064e4                _k_event_list_start = .
 *(._k_event_list.event.*)
 *(SORT(._k_event_list*))
                0x00000000200064e4                _k_event_list_end = .

_k_memory_pool  0x00000000200064e4        0x0 load address 0x0000000008014cbc
 *(._k_memory_pool.struct*)
 *(SORT(._k_memory_pool.struct*))
                0x00000000200064e4                _k_mem_pool_start = .
 *(._k_memory_pool.*)
 *(SORT(._k_memory_pool*))
                0x00000000200064e4                _k_mem_pool_end = .

_net_buf_pool_area
                0x00000000200064e4       0xc0 load address 0x0000000008014cbc
                0x00000000200064e4                _net_buf_pool_list = .
 *(SORT(._net_buf_pool.static.*))
 ._net_buf_pool.static.acl_in_pool
                0x00000000200064e4       0x20 zephyr/subsys/bluetooth/host/libsubsys__bluetooth__host.a(hci_core.c.obj)
                0x00000000200064e4                acl_in_pool
 ._net_buf_pool.static.acl_tx_pool
                0x0000000020006504       0x20 zephyr/subsys/bluetooth/host/libsubsys__bluetooth__host.a(conn.c.obj)
                0x0000000020006504                acl_tx_pool
 ._net_buf_pool.static.adv_buf_pool
                0x0000000020006524       0x20 zephyr/subsys/bluetooth/host/mesh/libsubsys__bluetooth__host__mesh.a(adv.c.obj)
                0x0000000020006524                adv_buf_pool
 ._net_buf_pool.static.friend_buf_pool
                0x0000000020006544       0x20 zephyr/subsys/bluetooth/host/mesh/libsubsys__bluetooth__host__mesh.a(friend.c.obj)
                0x0000000020006544                friend_buf_pool
 ._net_buf_pool.static.hci_cmd_pool
                0x0000000020006564       0x20 zephyr/subsys/bluetooth/host/libsubsys__bluetooth__host.a(hci_core.c.obj)
                0x0000000020006564                hci_cmd_pool
 ._net_buf_pool.static.hci_rx_pool
                0x0000000020006584       0x20 zephyr/subsys/bluetooth/host/libsubsys__bluetooth__host.a(hci_core.c.obj)
                0x0000000020006584                hci_rx_pool

net_if          0x00000000200065a4        0x0 load address 0x0000000008014d7c
                0x00000000200065a4                __net_if_start = .
 *(.net_if.*)
 *(SORT(.net_if.*))
                0x00000000200065a4                __net_if_end = .

net_if_event    0x00000000200065a4        0x0 load address 0x0000000008014d7c
                0x00000000200065a4                __net_if_event_start = .
 *(.net_if_event.*)
 *(SORT(.net_if_event.*))
                0x00000000200065a4                __net_if_event_end = .

net_l2_data     0x00000000200065a4        0x0 load address 0x0000000008014d7c
                0x00000000200065a4                __net_l2_data_start = .
 *(.net_l2.data)
 *(SORT(.net_l2.data*))
                0x00000000200065a4                __net_l2_data_end = .
                0x00000000200065a4                __data_ram_end = .
                0x00000000200065a4                _image_ram_end = .
                0x00000000200065a4                _end = .
                0x0000000020018000                __kernel_ram_end = 0x20018000
                0x0000000000018000                __kernel_ram_size = (__kernel_ram_end - __kernel_ram_start)

/DISCARD/
 *(.irq_info)
 *(.intList)
OUTPUT(zephyr/zephyr.elf elf32-littlearm)

.debug_info     0x0000000000000000    0x726d7
 .debug_info    0x0000000000000000       0xe4 zephyr/CMakeFiles/kernel_elf.dir/isr_tables.c.obj
 .debug_info    0x00000000000000e4      0x543 libapp.a(string.c.obj)
 .debug_info    0x0000000000000627     0x127b libapp.a(main.c.obj)
 .debug_info    0x00000000000018a2      0xd63 zephyr/libzephyr.a(printk.c.obj)
 .debug_info    0x0000000000002605       0x37 zephyr/libzephyr.a(configs.c.obj)
 .debug_info    0x000000000000263c      0x209 zephyr/libzephyr.a(utils.c.obj)
 .debug_info    0x0000000000002845      0x719 zephyr/libzephyr.a(ecc_dh.c.obj)
 .debug_info    0x0000000000002f5e     0x2f08 zephyr/libzephyr.a(ecc.c.obj)
 .debug_info    0x0000000000005e66      0x540 zephyr/libzephyr.a(aes_encrypt.c.obj)
 .debug_info    0x00000000000063a6      0x53e zephyr/libzephyr.a(cmac_mode.c.obj)
 .debug_info    0x00000000000068e4      0x4de zephyr/libzephyr.a(sha256.c.obj)
 .debug_info    0x0000000000006dc2      0x4a7 zephyr/libzephyr.a(hmac.c.obj)
 .debug_info    0x0000000000007269      0x6ba zephyr/libzephyr.a(hmac_prng.c.obj)
 .debug_info    0x0000000000007923      0xbbe zephyr/libzephyr.a(stm32f4xx_ll_utils.c.obj)
 .debug_info    0x00000000000084e1      0x4fe zephyr/libzephyr.a(system_stm32f4xx.c.obj)
 .debug_info    0x00000000000089df      0x147 zephyr/libzephyr.a(isr_tables.c.obj)
 .debug_info    0x0000000000008b26      0x8f7 zephyr/libzephyr.a(soc.c.obj)
 .debug_info    0x000000000000941d      0xb0e zephyr/libzephyr.a(soc_gpio.c.obj)
 .debug_info    0x0000000000009f2b      0x61b zephyr/libzephyr.a(arm_mpu_regions.c.obj)
 .debug_info    0x000000000000a546       0x8b zephyr/libzephyr.a(exc_exit.S.obj)
 .debug_info    0x000000000000a5d1      0xa50 zephyr/libzephyr.a(irq_init.c.obj)
 .debug_info    0x000000000000b021       0x83 zephyr/libzephyr.a(swap.S.obj)
 .debug_info    0x000000000000b0a4      0xe4b zephyr/libzephyr.a(fault.c.obj)
 .debug_info    0x000000000000beef      0xd4d zephyr/libzephyr.a(irq_manage.c.obj)
 .debug_info    0x000000000000cc3c      0x994 zephyr/libzephyr.a(thread.c.obj)
 .debug_info    0x000000000000d5d0       0x87 zephyr/libzephyr.a(cpu_idle.S.obj)
 .debug_info    0x000000000000d657       0x8a zephyr/libzephyr.a(fault_s.S.obj)
 .debug_info    0x000000000000d6e1      0x8b6 zephyr/libzephyr.a(fatal.c.obj)
 .debug_info    0x000000000000df97      0x8aa zephyr/libzephyr.a(sys_fatal_error_handler.c.obj)
 .debug_info    0x000000000000e841      0x96f zephyr/libzephyr.a(thread_abort.c.obj)
 .debug_info    0x000000000000f1b0       0x8e zephyr/libzephyr.a(isr_wrapper.S.obj)
 .debug_info    0x000000000000f23e       0x91 zephyr/libzephyr.a(reset.S.obj)
 .debug_info    0x000000000000f2cf       0x98 zephyr/libzephyr.a(nmi_on_reset.S.obj)
 .debug_info    0x000000000000f367      0x8c4 zephyr/libzephyr.a(prep_c.c.obj)
 .debug_info    0x000000000000fc2b      0x50a zephyr/libzephyr.a(nmi.c.obj)
 .debug_info    0x0000000000010135      0xb24 zephyr/libzephyr.a(arm_mpu.c.obj)
 .debug_info    0x0000000000010c59      0x89b zephyr/libzephyr.a(uart_console.c.obj)
 .debug_info    0x00000000000114f4     0x112a zephyr/libzephyr.a(exti_stm32.c.obj)
 .debug_info    0x000000000001261e      0xf48 zephyr/libzephyr.a(stm32_ll_clock.c.obj)
 .debug_info    0x0000000000013566      0x82e zephyr/libzephyr.a(stm32f4x_ll_clock.c.obj)
 .debug_info    0x0000000000013d94      0xaaa zephyr/libzephyr.a(flash_page_layout.c.obj)
 .debug_info    0x000000000001483e     0x10a6 zephyr/libzephyr.a(flash_stm32.c.obj)
 .debug_info    0x00000000000158e4      0xd2d zephyr/libzephyr.a(flash_stm32f4x.c.obj)
 .debug_info    0x0000000000016611     0x1193 zephyr/libzephyr.a(gpio_stm32.c.obj)
 .debug_info    0x00000000000177a4     0x1256 zephyr/libzephyr.a(i2c_ll_stm32_v1.c.obj)
 .debug_info    0x00000000000189fa      0xdaf zephyr/libzephyr.a(i2c_ll_stm32.c.obj)
 .debug_info    0x00000000000197a9      0x9d2 zephyr/libzephyr.a(pinmux_stm32.c.obj)
 .debug_info    0x000000000001a17b     0x11e1 zephyr/libzephyr.a(uart_stm32.c.obj)
 .debug_info    0x000000000001b35c     0x2ad5 zephyr/libzephyr.a(spi_ll_stm32.c.obj)
 .debug_info    0x000000000001de31     0x21bf zephyr/libzephyr.a(spi.c.obj)
 .debug_info    0x000000000001fff0      0x5be zephyr/libzephyr.a(sys_clock_init.c.obj)
 .debug_info    0x00000000000205ae      0xd23 zephyr/libzephyr.a(cortex_m_systick.c.obj)
 .debug_info    0x00000000000212d1      0x657 zephyr/boards/arm/96b_carbon/libboards__arm__96b_carbon.a(pinmux.c.obj)
 .debug_info    0x0000000000021928     0x1d3c zephyr/subsys/bluetooth/host/libsubsys__bluetooth__host.a(hci_ecc.c.obj)
 .debug_info    0x0000000000023664      0x3bf zephyr/subsys/bluetooth/host/libsubsys__bluetooth__host.a(uuid.c.obj)
 .debug_info    0x0000000000023a23     0x7d27 zephyr/subsys/bluetooth/host/libsubsys__bluetooth__host.a(hci_core.c.obj)
 .debug_info    0x000000000002b74a     0x105c zephyr/subsys/bluetooth/host/libsubsys__bluetooth__host.a(crypto.c.obj)
 .debug_info    0x000000000002c7a6     0x35a0 zephyr/subsys/bluetooth/host/libsubsys__bluetooth__host.a(conn.c.obj)
 .debug_info    0x000000000002fd46     0x1f8e zephyr/subsys/bluetooth/host/libsubsys__bluetooth__host.a(l2cap.c.obj)
 .debug_info    0x0000000000031cd4     0x5251 zephyr/subsys/bluetooth/host/libsubsys__bluetooth__host.a(att.c.obj)
 .debug_info    0x0000000000036f25     0x37f6 zephyr/subsys/bluetooth/host/libsubsys__bluetooth__host.a(gatt.c.obj)
 .debug_info    0x000000000003a71b     0x107b zephyr/subsys/bluetooth/host/libsubsys__bluetooth__host.a(smp_null.c.obj)
 .debug_info    0x000000000003b796     0x15ec zephyr/subsys/bluetooth/host/mesh/libsubsys__bluetooth__host__mesh.a(main.c.obj)
 .debug_info    0x000000000003cd82     0x20e5 zephyr/subsys/bluetooth/host/mesh/libsubsys__bluetooth__host__mesh.a(adv.c.obj)
 .debug_info    0x000000000003ee67     0x1bd4 zephyr/subsys/bluetooth/host/mesh/libsubsys__bluetooth__host__mesh.a(beacon.c.obj)
 .debug_info    0x0000000000040a3b     0x3595 zephyr/subsys/bluetooth/host/mesh/libsubsys__bluetooth__host__mesh.a(net.c.obj)
 .debug_info    0x0000000000043fd0     0x32a9 zephyr/subsys/bluetooth/host/mesh/libsubsys__bluetooth__host__mesh.a(transport.c.obj)
 .debug_info    0x0000000000047279     0x2730 zephyr/subsys/bluetooth/host/mesh/libsubsys__bluetooth__host__mesh.a(crypto.c.obj)
 .debug_info    0x00000000000499a9     0x23cd zephyr/subsys/bluetooth/host/mesh/libsubsys__bluetooth__host__mesh.a(access.c.obj)
 .debug_info    0x000000000004bd76     0x7237 zephyr/subsys/bluetooth/host/mesh/libsubsys__bluetooth__host__mesh.a(cfg_srv.c.obj)
 .debug_info    0x0000000000052fad     0x1fea zephyr/subsys/bluetooth/host/mesh/libsubsys__bluetooth__host__mesh.a(health_srv.c.obj)
 .debug_info    0x0000000000054f97     0x370f zephyr/subsys/bluetooth/host/mesh/libsubsys__bluetooth__host__mesh.a(friend.c.obj)
 .debug_info    0x00000000000586a6     0x4424 zephyr/subsys/bluetooth/host/mesh/libsubsys__bluetooth__host__mesh.a(prov.c.obj)
 .debug_info    0x000000000005caca     0x335a zephyr/subsys/bluetooth/host/mesh/libsubsys__bluetooth__host__mesh.a(proxy.c.obj)
 .debug_info    0x000000000005fe24     0x19eb zephyr/subsys/net/libsubsys__net.a(buf.c.obj)
 .debug_info    0x000000000006180f      0x714 zephyr/kernel/libkernel.a(device.c.obj)
 .debug_info    0x0000000000061f23      0x6a6 zephyr/kernel/libkernel.a(errno.c.obj)
 .debug_info    0x00000000000625c9     0x1298 zephyr/kernel/libkernel.a(init.c.obj)
 .debug_info    0x0000000000063861     0x1205 zephyr/kernel/libkernel.a(queue.c.obj)
 .debug_info    0x0000000000064a66     0x1e57 zephyr/kernel/libkernel.a(sched.c.obj)
 .debug_info    0x00000000000668bd     0x1365 zephyr/kernel/libkernel.a(sem.c.obj)
 .debug_info    0x0000000000067c22     0x110e zephyr/kernel/libkernel.a(sys_clock.c.obj)
 .debug_info    0x0000000000068d30      0x663 zephyr/kernel/libkernel.a(system_work_q.c.obj)
 .debug_info    0x0000000000069393     0x1e9a zephyr/kernel/libkernel.a(thread.c.obj)
 .debug_info    0x000000000006b22d     0x1730 zephyr/kernel/libkernel.a(work_q.c.obj)
 .debug_info    0x000000000006c95d     0x187d zephyr/kernel/libkernel.a(timer.c.obj)
 .debug_info    0x000000000006e1da     0x1bc3 zephyr/kernel/libkernel.a(poll.c.obj)
 .debug_info    0x000000000006fd9d      0x7fe zephyr/kernel/libkernel.a(idle.c.obj)
 .debug_info    0x000000000007059b      0x938 zephyr/CMakeFiles/offsets.dir/arch/arm/core/offsets/offsets.c.obj
 .debug_info    0x0000000000070ed3       0xe0 /opt/zephyr-sdk/sysroots/armv5-zephyr-eabi/usr/lib/arm-zephyr-eabi/6.2.0/armv7e-m/libgcc.a(_ashldi3.o)
 .debug_info    0x0000000000070fb3       0xdc /opt/zephyr-sdk/sysroots/armv5-zephyr-eabi/usr/lib/arm-zephyr-eabi/6.2.0/armv7e-m/libgcc.a(_aeabi_ldivmod.o)
 .debug_info    0x000000000007108f       0xdc /opt/zephyr-sdk/sysroots/armv5-zephyr-eabi/usr/lib/arm-zephyr-eabi/6.2.0/armv7e-m/libgcc.a(_aeabi_uldivmod.o)
 .debug_info    0x000000000007116b      0x88c /opt/zephyr-sdk/sysroots/armv5-zephyr-eabi/usr/lib/arm-zephyr-eabi/6.2.0/armv7e-m/libgcc.a(_popcountsi2.o)
 .debug_info    0x00000000000719f7      0xc00 /opt/zephyr-sdk/sysroots/armv5-zephyr-eabi/usr/lib/arm-zephyr-eabi/6.2.0/armv7e-m/libgcc.a(_udivmoddi4.o)
 .debug_info    0x00000000000725f7       0xe0 /opt/zephyr-sdk/sysroots/armv5-zephyr-eabi/usr/lib/arm-zephyr-eabi/6.2.0/armv7e-m/libgcc.a(_dvmd_tls.o)

.debug_abbrev   0x0000000000000000    0x11e54
 .debug_abbrev  0x0000000000000000       0xb7 zephyr/CMakeFiles/kernel_elf.dir/isr_tables.c.obj
 .debug_abbrev  0x00000000000000b7      0x19f libapp.a(string.c.obj)
 .debug_abbrev  0x0000000000000256      0x359 libapp.a(main.c.obj)
 .debug_abbrev  0x00000000000005af      0x3fa zephyr/libzephyr.a(printk.c.obj)
 .debug_abbrev  0x00000000000009a9       0x2c zephyr/libzephyr.a(configs.c.obj)
 .debug_abbrev  0x00000000000009d5      0x128 zephyr/libzephyr.a(utils.c.obj)
 .debug_abbrev  0x0000000000000afd      0x1a1 zephyr/libzephyr.a(ecc_dh.c.obj)
 .debug_abbrev  0x0000000000000c9e      0x452 zephyr/libzephyr.a(ecc.c.obj)
 .debug_abbrev  0x00000000000010f0      0x1d5 zephyr/libzephyr.a(aes_encrypt.c.obj)
 .debug_abbrev  0x00000000000012c5      0x16e zephyr/libzephyr.a(cmac_mode.c.obj)
 .debug_abbrev  0x0000000000001433      0x1b2 zephyr/libzephyr.a(sha256.c.obj)
 .debug_abbrev  0x00000000000015e5      0x17a zephyr/libzephyr.a(hmac.c.obj)
 .debug_abbrev  0x000000000000175f      0x18e zephyr/libzephyr.a(hmac_prng.c.obj)
 .debug_abbrev  0x00000000000018ed      0x2a8 zephyr/libzephyr.a(stm32f4xx_ll_utils.c.obj)
 .debug_abbrev  0x0000000000001b95      0x10e zephyr/libzephyr.a(system_stm32f4xx.c.obj)
 .debug_abbrev  0x0000000000001ca3       0xe0 zephyr/libzephyr.a(isr_tables.c.obj)
 .debug_abbrev  0x0000000000001d83      0x2a0 zephyr/libzephyr.a(soc.c.obj)
 .debug_abbrev  0x0000000000002023      0x2d1 zephyr/libzephyr.a(soc_gpio.c.obj)
 .debug_abbrev  0x00000000000022f4      0x182 zephyr/libzephyr.a(arm_mpu_regions.c.obj)
 .debug_abbrev  0x0000000000002476       0x14 zephyr/libzephyr.a(exc_exit.S.obj)
 .debug_abbrev  0x000000000000248a      0x22b zephyr/libzephyr.a(irq_init.c.obj)
 .debug_abbrev  0x00000000000026b5       0x12 zephyr/libzephyr.a(swap.S.obj)
 .debug_abbrev  0x00000000000026c7      0x353 zephyr/libzephyr.a(fault.c.obj)
 .debug_abbrev  0x0000000000002a1a      0x2ba zephyr/libzephyr.a(irq_manage.c.obj)
 .debug_abbrev  0x0000000000002cd4      0x277 zephyr/libzephyr.a(thread.c.obj)
 .debug_abbrev  0x0000000000002f4b       0x12 zephyr/libzephyr.a(cpu_idle.S.obj)
 .debug_abbrev  0x0000000000002f5d       0x14 zephyr/libzephyr.a(fault_s.S.obj)
 .debug_abbrev  0x0000000000002f71      0x256 zephyr/libzephyr.a(fatal.c.obj)
 .debug_abbrev  0x00000000000031c7      0x267 zephyr/libzephyr.a(sys_fatal_error_handler.c.obj)
 .debug_abbrev  0x000000000000342e      0x26e zephyr/libzephyr.a(thread_abort.c.obj)
 .debug_abbrev  0x000000000000369c       0x14 zephyr/libzephyr.a(isr_wrapper.S.obj)
 .debug_abbrev  0x00000000000036b0       0x14 zephyr/libzephyr.a(reset.S.obj)
 .debug_abbrev  0x00000000000036c4       0x14 zephyr/libzephyr.a(nmi_on_reset.S.obj)
 .debug_abbrev  0x00000000000036d8      0x1ed zephyr/libzephyr.a(prep_c.c.obj)
 .debug_abbrev  0x00000000000038c5      0x18f zephyr/libzephyr.a(nmi.c.obj)
 .debug_abbrev  0x0000000000003a54      0x319 zephyr/libzephyr.a(arm_mpu.c.obj)
 .debug_abbrev  0x0000000000003d6d      0x2d6 zephyr/libzephyr.a(uart_console.c.obj)
 .debug_abbrev  0x0000000000004043      0x3cb zephyr/libzephyr.a(exti_stm32.c.obj)
 .debug_abbrev  0x000000000000440e      0x36b zephyr/libzephyr.a(stm32_ll_clock.c.obj)
 .debug_abbrev  0x0000000000004779      0x218 zephyr/libzephyr.a(stm32f4x_ll_clock.c.obj)
 .debug_abbrev  0x0000000000004991      0x245 zephyr/libzephyr.a(flash_page_layout.c.obj)
 .debug_abbrev  0x0000000000004bd6      0x370 zephyr/libzephyr.a(flash_stm32.c.obj)
 .debug_abbrev  0x0000000000004f46      0x324 zephyr/libzephyr.a(flash_stm32f4x.c.obj)
 .debug_abbrev  0x000000000000526a      0x387 zephyr/libzephyr.a(gpio_stm32.c.obj)
 .debug_abbrev  0x00000000000055f1      0x30f zephyr/libzephyr.a(i2c_ll_stm32_v1.c.obj)
 .debug_abbrev  0x0000000000005900      0x320 zephyr/libzephyr.a(i2c_ll_stm32.c.obj)
 .debug_abbrev  0x0000000000005c20      0x2c6 zephyr/libzephyr.a(pinmux_stm32.c.obj)
 .debug_abbrev  0x0000000000005ee6      0x381 zephyr/libzephyr.a(uart_stm32.c.obj)
 .debug_abbrev  0x0000000000006267      0x4c4 zephyr/libzephyr.a(spi_ll_stm32.c.obj)
 .debug_abbrev  0x000000000000672b      0x472 zephyr/libzephyr.a(spi.c.obj)
 .debug_abbrev  0x0000000000006b9d      0x17c zephyr/libzephyr.a(sys_clock_init.c.obj)
 .debug_abbrev  0x0000000000006d19      0x33d zephyr/libzephyr.a(cortex_m_systick.c.obj)
 .debug_abbrev  0x0000000000007056      0x1da zephyr/boards/arm/96b_carbon/libboards__arm__96b_carbon.a(pinmux.c.obj)
 .debug_abbrev  0x0000000000007230      0x4ad zephyr/subsys/bluetooth/host/libsubsys__bluetooth__host.a(hci_ecc.c.obj)
 .debug_abbrev  0x00000000000076dd      0x1e3 zephyr/subsys/bluetooth/host/libsubsys__bluetooth__host.a(uuid.c.obj)
 .debug_abbrev  0x00000000000078c0      0x6b3 zephyr/subsys/bluetooth/host/libsubsys__bluetooth__host.a(hci_core.c.obj)
 .debug_abbrev  0x0000000000007f73      0x39f zephyr/subsys/bluetooth/host/libsubsys__bluetooth__host.a(crypto.c.obj)
 .debug_abbrev  0x0000000000008312      0x625 zephyr/subsys/bluetooth/host/libsubsys__bluetooth__host.a(conn.c.obj)
 .debug_abbrev  0x0000000000008937      0x596 zephyr/subsys/bluetooth/host/libsubsys__bluetooth__host.a(l2cap.c.obj)
 .debug_abbrev  0x0000000000008ecd      0x5c5 zephyr/subsys/bluetooth/host/libsubsys__bluetooth__host.a(att.c.obj)
 .debug_abbrev  0x0000000000009492      0x617 zephyr/subsys/bluetooth/host/libsubsys__bluetooth__host.a(gatt.c.obj)
 .debug_abbrev  0x0000000000009aa9      0x392 zephyr/subsys/bluetooth/host/libsubsys__bluetooth__host.a(smp_null.c.obj)
 .debug_abbrev  0x0000000000009e3b      0x334 zephyr/subsys/bluetooth/host/mesh/libsubsys__bluetooth__host__mesh.a(main.c.obj)
 .debug_abbrev  0x000000000000a16f      0x528 zephyr/subsys/bluetooth/host/mesh/libsubsys__bluetooth__host__mesh.a(adv.c.obj)
 .debug_abbrev  0x000000000000a697      0x53f zephyr/subsys/bluetooth/host/mesh/libsubsys__bluetooth__host__mesh.a(beacon.c.obj)
 .debug_abbrev  0x000000000000abd6      0x5f0 zephyr/subsys/bluetooth/host/mesh/libsubsys__bluetooth__host__mesh.a(net.c.obj)
 .debug_abbrev  0x000000000000b1c6      0x655 zephyr/subsys/bluetooth/host/mesh/libsubsys__bluetooth__host__mesh.a(transport.c.obj)
 .debug_abbrev  0x000000000000b81b      0x4ac zephyr/subsys/bluetooth/host/mesh/libsubsys__bluetooth__host__mesh.a(crypto.c.obj)
 .debug_abbrev  0x000000000000bcc7      0x5d6 zephyr/subsys/bluetooth/host/mesh/libsubsys__bluetooth__host__mesh.a(access.c.obj)
 .debug_abbrev  0x000000000000c29d      0x609 zephyr/subsys/bluetooth/host/mesh/libsubsys__bluetooth__host__mesh.a(cfg_srv.c.obj)
 .debug_abbrev  0x000000000000c8a6      0x51d zephyr/subsys/bluetooth/host/mesh/libsubsys__bluetooth__host__mesh.a(health_srv.c.obj)
 .debug_abbrev  0x000000000000cdc3      0x603 zephyr/subsys/bluetooth/host/mesh/libsubsys__bluetooth__host__mesh.a(friend.c.obj)
 .debug_abbrev  0x000000000000d3c6      0x6e3 zephyr/subsys/bluetooth/host/mesh/libsubsys__bluetooth__host__mesh.a(prov.c.obj)
 .debug_abbrev  0x000000000000daa9      0x608 zephyr/subsys/bluetooth/host/mesh/libsubsys__bluetooth__host__mesh.a(proxy.c.obj)
 .debug_abbrev  0x000000000000e0b1      0x50d zephyr/subsys/net/libsubsys__net.a(buf.c.obj)
 .debug_abbrev  0x000000000000e5be      0x278 zephyr/kernel/libkernel.a(device.c.obj)
 .debug_abbrev  0x000000000000e836      0x1bc zephyr/kernel/libkernel.a(errno.c.obj)
 .debug_abbrev  0x000000000000e9f2      0x479 zephyr/kernel/libkernel.a(init.c.obj)
 .debug_abbrev  0x000000000000ee6b      0x3db zephyr/kernel/libkernel.a(queue.c.obj)
 .debug_abbrev  0x000000000000f246      0x581 zephyr/kernel/libkernel.a(sched.c.obj)
 .debug_abbrev  0x000000000000f7c7      0x483 zephyr/kernel/libkernel.a(sem.c.obj)
 .debug_abbrev  0x000000000000fc4a      0x413 zephyr/kernel/libkernel.a(sys_clock.c.obj)
 .debug_abbrev  0x000000000001005d      0x1f8 zephyr/kernel/libkernel.a(system_work_q.c.obj)
 .debug_abbrev  0x0000000000010255      0x5d4 zephyr/kernel/libkernel.a(thread.c.obj)
 .debug_abbrev  0x0000000000010829      0x4ab zephyr/kernel/libkernel.a(work_q.c.obj)
 .debug_abbrev  0x0000000000010cd4      0x4c3 zephyr/kernel/libkernel.a(timer.c.obj)
 .debug_abbrev  0x0000000000011197      0x553 zephyr/kernel/libkernel.a(poll.c.obj)
 .debug_abbrev  0x00000000000116ea      0x298 zephyr/kernel/libkernel.a(idle.c.obj)
 .debug_abbrev  0x0000000000011982      0x1c1 zephyr/CMakeFiles/offsets.dir/arch/arm/core/offsets/offsets.c.obj
 .debug_abbrev  0x0000000000011b43       0x14 /opt/zephyr-sdk/sysroots/armv5-zephyr-eabi/usr/lib/arm-zephyr-eabi/6.2.0/armv7e-m/libgcc.a(_ashldi3.o)
 .debug_abbrev  0x0000000000011b57       0x14 /opt/zephyr-sdk/sysroots/armv5-zephyr-eabi/usr/lib/arm-zephyr-eabi/6.2.0/armv7e-m/libgcc.a(_aeabi_ldivmod.o)
 .debug_abbrev  0x0000000000011b6b       0x14 /opt/zephyr-sdk/sysroots/armv5-zephyr-eabi/usr/lib/arm-zephyr-eabi/6.2.0/armv7e-m/libgcc.a(_aeabi_uldivmod.o)
 .debug_abbrev  0x0000000000011b7f      0x135 /opt/zephyr-sdk/sysroots/armv5-zephyr-eabi/usr/lib/arm-zephyr-eabi/6.2.0/armv7e-m/libgcc.a(_popcountsi2.o)
 .debug_abbrev  0x0000000000011cb4      0x18c /opt/zephyr-sdk/sysroots/armv5-zephyr-eabi/usr/lib/arm-zephyr-eabi/6.2.0/armv7e-m/libgcc.a(_udivmoddi4.o)
 .debug_abbrev  0x0000000000011e40       0x14 /opt/zephyr-sdk/sysroots/armv5-zephyr-eabi/usr/lib/arm-zephyr-eabi/6.2.0/armv7e-m/libgcc.a(_dvmd_tls.o)

.debug_aranges  0x0000000000000000     0x25a8
 .debug_aranges
                0x0000000000000000       0x18 zephyr/CMakeFiles/kernel_elf.dir/isr_tables.c.obj
 .debug_aranges
                0x0000000000000018       0x88 libapp.a(string.c.obj)
 .debug_aranges
                0x00000000000000a0       0x40 libapp.a(main.c.obj)
 .debug_aranges
                0x00000000000000e0       0x78 zephyr/libzephyr.a(printk.c.obj)
 .debug_aranges
                0x0000000000000158       0x20 zephyr/libzephyr.a(configs.c.obj)
 .debug_aranges
                0x0000000000000178       0x38 zephyr/libzephyr.a(utils.c.obj)
 .debug_aranges
                0x00000000000001b0       0x30 zephyr/libzephyr.a(ecc_dh.c.obj)
 .debug_aranges
                0x00000000000001e0      0x168 zephyr/libzephyr.a(ecc.c.obj)
 .debug_aranges
                0x0000000000000348       0x40 zephyr/libzephyr.a(aes_encrypt.c.obj)
 .debug_aranges
                0x0000000000000388       0x48 zephyr/libzephyr.a(cmac_mode.c.obj)
 .debug_aranges
                0x00000000000003d0       0x38 zephyr/libzephyr.a(sha256.c.obj)
 .debug_aranges
                0x0000000000000408       0x40 zephyr/libzephyr.a(hmac.c.obj)
 .debug_aranges
                0x0000000000000448       0x38 zephyr/libzephyr.a(hmac_prng.c.obj)
 .debug_aranges
                0x0000000000000480       0x58 zephyr/libzephyr.a(stm32f4xx_ll_utils.c.obj)
 .debug_aranges
                0x00000000000004d8       0x28 zephyr/libzephyr.a(system_stm32f4xx.c.obj)
 .debug_aranges
                0x0000000000000500       0x20 zephyr/libzephyr.a(isr_tables.c.obj)
 .debug_aranges
                0x0000000000000520       0x28 zephyr/libzephyr.a(soc.c.obj)
 .debug_aranges
                0x0000000000000548       0x40 zephyr/libzephyr.a(soc_gpio.c.obj)
 .debug_aranges
                0x0000000000000588       0x18 zephyr/libzephyr.a(arm_mpu_regions.c.obj)
 .debug_aranges
                0x00000000000005a0       0x20 zephyr/libzephyr.a(exc_exit.S.obj)
 .debug_aranges
                0x00000000000005c0       0x20 zephyr/libzephyr.a(irq_init.c.obj)
 .debug_aranges
                0x00000000000005e0       0x30 zephyr/libzephyr.a(swap.S.obj)
 .debug_aranges
                0x0000000000000610       0x48 zephyr/libzephyr.a(fault.c.obj)
 .debug_aranges
                0x0000000000000658       0x40 zephyr/libzephyr.a(irq_manage.c.obj)
 .debug_aranges
                0x0000000000000698       0x20 zephyr/libzephyr.a(thread.c.obj)
 .debug_aranges
                0x00000000000006b8       0x30 zephyr/libzephyr.a(cpu_idle.S.obj)
 .debug_aranges
                0x00000000000006e8       0x20 zephyr/libzephyr.a(fault_s.S.obj)
 .debug_aranges
                0x0000000000000708       0x28 zephyr/libzephyr.a(fatal.c.obj)
 .debug_aranges
                0x0000000000000730       0x20 zephyr/libzephyr.a(sys_fatal_error_handler.c.obj)
 .debug_aranges
                0x0000000000000750       0x20 zephyr/libzephyr.a(thread_abort.c.obj)
 .debug_aranges
                0x0000000000000770       0x20 zephyr/libzephyr.a(isr_wrapper.S.obj)
 .debug_aranges
                0x0000000000000790       0x20 zephyr/libzephyr.a(reset.S.obj)
 .debug_aranges
                0x00000000000007b0       0x20 zephyr/libzephyr.a(nmi_on_reset.S.obj)
 .debug_aranges
                0x00000000000007d0       0x20 zephyr/libzephyr.a(prep_c.c.obj)
 .debug_aranges
                0x00000000000007f0       0x20 zephyr/libzephyr.a(nmi.c.obj)
 .debug_aranges
                0x0000000000000810       0x38 zephyr/libzephyr.a(arm_mpu.c.obj)
 .debug_aranges
                0x0000000000000848       0x30 zephyr/libzephyr.a(uart_console.c.obj)
 .debug_aranges
                0x0000000000000878       0xb0 zephyr/libzephyr.a(exti_stm32.c.obj)
 .debug_aranges
                0x0000000000000928       0x38 zephyr/libzephyr.a(stm32_ll_clock.c.obj)
 .debug_aranges
                0x0000000000000960       0x30 zephyr/libzephyr.a(stm32f4x_ll_clock.c.obj)
 .debug_aranges
                0x0000000000000990       0x40 zephyr/libzephyr.a(flash_page_layout.c.obj)
 .debug_aranges
                0x00000000000009d0       0x48 zephyr/libzephyr.a(flash_stm32.c.obj)
 .debug_aranges
                0x0000000000000a18       0x38 zephyr/libzephyr.a(flash_stm32f4x.c.obj)
 .debug_aranges
                0x0000000000000a50       0x58 zephyr/libzephyr.a(gpio_stm32.c.obj)
 .debug_aranges
                0x0000000000000aa8       0x30 zephyr/libzephyr.a(i2c_ll_stm32_v1.c.obj)
 .debug_aranges
                0x0000000000000ad8       0x30 zephyr/libzephyr.a(i2c_ll_stm32.c.obj)
 .debug_aranges
                0x0000000000000b08       0x28 zephyr/libzephyr.a(pinmux_stm32.c.obj)
 .debug_aranges
                0x0000000000000b30       0x30 zephyr/libzephyr.a(uart_stm32.c.obj)
 .debug_aranges
                0x0000000000000b60       0x70 zephyr/libzephyr.a(spi_ll_stm32.c.obj)
 .debug_aranges
                0x0000000000000bd0       0x48 zephyr/libzephyr.a(spi.c.obj)
 .debug_aranges
                0x0000000000000c18       0x18 zephyr/libzephyr.a(sys_clock_init.c.obj)
 .debug_aranges
                0x0000000000000c30       0x30 zephyr/libzephyr.a(cortex_m_systick.c.obj)
 .debug_aranges
                0x0000000000000c60       0x20 zephyr/boards/arm/96b_carbon/libboards__arm__96b_carbon.a(pinmux.c.obj)
 .debug_aranges
                0x0000000000000c80       0x48 zephyr/subsys/bluetooth/host/libsubsys__bluetooth__host.a(hci_ecc.c.obj)
 .debug_aranges
                0x0000000000000cc8       0x28 zephyr/subsys/bluetooth/host/libsubsys__bluetooth__host.a(uuid.c.obj)
 .debug_aranges
                0x0000000000000cf0      0x190 zephyr/subsys/bluetooth/host/libsubsys__bluetooth__host.a(hci_core.c.obj)
 .debug_aranges
                0x0000000000000e80       0x40 zephyr/subsys/bluetooth/host/libsubsys__bluetooth__host.a(crypto.c.obj)
 .debug_aranges
                0x0000000000000ec0      0x140 zephyr/subsys/bluetooth/host/libsubsys__bluetooth__host.a(conn.c.obj)
 .debug_aranges
                0x0000000000001000       0xa8 zephyr/subsys/bluetooth/host/libsubsys__bluetooth__host.a(l2cap.c.obj)
 .debug_aranges
                0x00000000000010a8      0x1a8 zephyr/subsys/bluetooth/host/libsubsys__bluetooth__host.a(att.c.obj)
 .debug_aranges
                0x0000000000001250      0x138 zephyr/subsys/bluetooth/host/libsubsys__bluetooth__host.a(gatt.c.obj)
 .debug_aranges
                0x0000000000001388       0x38 zephyr/subsys/bluetooth/host/libsubsys__bluetooth__host.a(smp_null.c.obj)
 .debug_aranges
                0x00000000000013c0       0x48 zephyr/subsys/bluetooth/host/mesh/libsubsys__bluetooth__host__mesh.a(main.c.obj)
 .debug_aranges
                0x0000000000001408       0x68 zephyr/subsys/bluetooth/host/mesh/libsubsys__bluetooth__host__mesh.a(adv.c.obj)
 .debug_aranges
                0x0000000000001470       0x68 zephyr/subsys/bluetooth/host/mesh/libsubsys__bluetooth__host__mesh.a(beacon.c.obj)
 .debug_aranges
                0x00000000000014d8       0xf8 zephyr/subsys/bluetooth/host/mesh/libsubsys__bluetooth__host__mesh.a(net.c.obj)
 .debug_aranges
                0x00000000000015d0       0xe0 zephyr/subsys/bluetooth/host/mesh/libsubsys__bluetooth__host__mesh.a(transport.c.obj)
 .debug_aranges
                0x00000000000016b0       0xd8 zephyr/subsys/bluetooth/host/mesh/libsubsys__bluetooth__host__mesh.a(crypto.c.obj)
 .debug_aranges
                0x0000000000001788       0xc0 zephyr/subsys/bluetooth/host/mesh/libsubsys__bluetooth__host__mesh.a(access.c.obj)
 .debug_aranges
                0x0000000000001848      0x280 zephyr/subsys/bluetooth/host/mesh/libsubsys__bluetooth__host__mesh.a(cfg_srv.c.obj)
 .debug_aranges
                0x0000000000001ac8       0xb0 zephyr/subsys/bluetooth/host/mesh/libsubsys__bluetooth__host__mesh.a(health_srv.c.obj)
 .debug_aranges
                0x0000000000001b78      0x110 zephyr/subsys/bluetooth/host/mesh/libsubsys__bluetooth__host__mesh.a(friend.c.obj)
 .debug_aranges
                0x0000000000001c88      0x180 zephyr/subsys/bluetooth/host/mesh/libsubsys__bluetooth__host__mesh.a(prov.c.obj)
 .debug_aranges
                0x0000000000001e08      0x110 zephyr/subsys/bluetooth/host/mesh/libsubsys__bluetooth__host__mesh.a(proxy.c.obj)
 .debug_aranges
                0x0000000000001f18      0x130 zephyr/subsys/net/libsubsys__net.a(buf.c.obj)
 .debug_aranges
                0x0000000000002048       0x30 zephyr/kernel/libkernel.a(device.c.obj)
 .debug_aranges
                0x0000000000002078       0x20 zephyr/kernel/libkernel.a(errno.c.obj)
 .debug_aranges
                0x0000000000002098       0x48 zephyr/kernel/libkernel.a(init.c.obj)
 .debug_aranges
                0x00000000000020e0       0x58 zephyr/kernel/libkernel.a(queue.c.obj)
 .debug_aranges
                0x0000000000002138       0xc0 zephyr/kernel/libkernel.a(sched.c.obj)
 .debug_aranges
                0x00000000000021f8       0x50 zephyr/kernel/libkernel.a(sem.c.obj)
 .debug_aranges
                0x0000000000002248       0x48 zephyr/kernel/libkernel.a(sys_clock.c.obj)
 .debug_aranges
                0x0000000000002290       0x20 zephyr/kernel/libkernel.a(system_work_q.c.obj)
 .debug_aranges
                0x00000000000022b0       0xd0 zephyr/kernel/libkernel.a(thread.c.obj)
 .debug_aranges
                0x0000000000002380       0x50 zephyr/kernel/libkernel.a(work_q.c.obj)
 .debug_aranges
                0x00000000000023d0       0x70 zephyr/kernel/libkernel.a(timer.c.obj)
 .debug_aranges
                0x0000000000002440       0x60 zephyr/kernel/libkernel.a(poll.c.obj)
 .debug_aranges
                0x00000000000024a0       0x28 zephyr/kernel/libkernel.a(idle.c.obj)
 .debug_aranges
                0x00000000000024c8       0x20 zephyr/CMakeFiles/offsets.dir/arch/arm/core/offsets/offsets.c.obj
 .debug_aranges
                0x00000000000024e8       0x20 /opt/zephyr-sdk/sysroots/armv5-zephyr-eabi/usr/lib/arm-zephyr-eabi/6.2.0/armv7e-m/libgcc.a(_ashldi3.o)
 .debug_aranges
                0x0000000000002508       0x20 /opt/zephyr-sdk/sysroots/armv5-zephyr-eabi/usr/lib/arm-zephyr-eabi/6.2.0/armv7e-m/libgcc.a(_aeabi_ldivmod.o)
 .debug_aranges
                0x0000000000002528       0x20 /opt/zephyr-sdk/sysroots/armv5-zephyr-eabi/usr/lib/arm-zephyr-eabi/6.2.0/armv7e-m/libgcc.a(_aeabi_uldivmod.o)
 .debug_aranges
                0x0000000000002548       0x20 /opt/zephyr-sdk/sysroots/armv5-zephyr-eabi/usr/lib/arm-zephyr-eabi/6.2.0/armv7e-m/libgcc.a(_popcountsi2.o)
 .debug_aranges
                0x0000000000002568       0x20 /opt/zephyr-sdk/sysroots/armv5-zephyr-eabi/usr/lib/arm-zephyr-eabi/6.2.0/armv7e-m/libgcc.a(_udivmoddi4.o)
 .debug_aranges
                0x0000000000002588       0x20 /opt/zephyr-sdk/sysroots/armv5-zephyr-eabi/usr/lib/arm-zephyr-eabi/6.2.0/armv7e-m/libgcc.a(_dvmd_tls.o)

.debug_line     0x0000000000000000    0x1949e
 .debug_line    0x0000000000000000       0x96 zephyr/CMakeFiles/kernel_elf.dir/isr_tables.c.obj
 .debug_line    0x0000000000000096      0x250 libapp.a(string.c.obj)
 .debug_line    0x00000000000002e6      0x32b libapp.a(main.c.obj)
 .debug_line    0x0000000000000611      0x3b5 zephyr/libzephyr.a(printk.c.obj)
 .debug_line    0x00000000000009c6      0x137 zephyr/libzephyr.a(configs.c.obj)
 .debug_line    0x0000000000000afd      0x176 zephyr/libzephyr.a(utils.c.obj)
 .debug_line    0x0000000000000c73      0x18b zephyr/libzephyr.a(ecc_dh.c.obj)
 .debug_line    0x0000000000000dfe      0x84e zephyr/libzephyr.a(ecc.c.obj)
 .debug_line    0x000000000000164c      0x1e2 zephyr/libzephyr.a(aes_encrypt.c.obj)
 .debug_line    0x000000000000182e      0x266 zephyr/libzephyr.a(cmac_mode.c.obj)
 .debug_line    0x0000000000001a94      0x2e4 zephyr/libzephyr.a(sha256.c.obj)
 .debug_line    0x0000000000001d78      0x219 zephyr/libzephyr.a(hmac.c.obj)
 .debug_line    0x0000000000001f91      0x228 zephyr/libzephyr.a(hmac_prng.c.obj)
 .debug_line    0x00000000000021b9      0x3f8 zephyr/libzephyr.a(stm32f4xx_ll_utils.c.obj)
 .debug_line    0x00000000000025b1      0x14e zephyr/libzephyr.a(system_stm32f4xx.c.obj)
 .debug_line    0x00000000000026ff       0xc2 zephyr/libzephyr.a(isr_tables.c.obj)
 .debug_line    0x00000000000027c1      0x30b zephyr/libzephyr.a(soc.c.obj)
 .debug_line    0x0000000000002acc      0x352 zephyr/libzephyr.a(soc_gpio.c.obj)
 .debug_line    0x0000000000002e1e      0x272 zephyr/libzephyr.a(arm_mpu_regions.c.obj)
 .debug_line    0x0000000000003090       0x76 zephyr/libzephyr.a(exc_exit.S.obj)
 .debug_line    0x0000000000003106      0x272 zephyr/libzephyr.a(irq_init.c.obj)
 .debug_line    0x0000000000003378       0xc9 zephyr/libzephyr.a(swap.S.obj)
 .debug_line    0x0000000000003441      0x412 zephyr/libzephyr.a(fault.c.obj)
 .debug_line    0x0000000000003853      0x394 zephyr/libzephyr.a(irq_manage.c.obj)
 .debug_line    0x0000000000003be7      0x3f1 zephyr/libzephyr.a(thread.c.obj)
 .debug_line    0x0000000000003fd8       0x8e zephyr/libzephyr.a(cpu_idle.S.obj)
 .debug_line    0x0000000000004066       0x6c zephyr/libzephyr.a(fault_s.S.obj)
 .debug_line    0x00000000000040d2      0x35e zephyr/libzephyr.a(fatal.c.obj)
 .debug_line    0x0000000000004430      0x362 zephyr/libzephyr.a(sys_fatal_error_handler.c.obj)
 .debug_line    0x0000000000004792      0x373 zephyr/libzephyr.a(thread_abort.c.obj)
 .debug_line    0x0000000000004b05       0x72 zephyr/libzephyr.a(isr_wrapper.S.obj)
 .debug_line    0x0000000000004b77       0x72 zephyr/libzephyr.a(reset.S.obj)
 .debug_line    0x0000000000004be9       0x6d zephyr/libzephyr.a(nmi_on_reset.S.obj)
 .debug_line    0x0000000000004c56      0x2c4 zephyr/libzephyr.a(prep_c.c.obj)
 .debug_line    0x0000000000004f1a      0x198 zephyr/libzephyr.a(nmi.c.obj)
 .debug_line    0x00000000000050b2      0x3b5 zephyr/libzephyr.a(arm_mpu.c.obj)
 .debug_line    0x0000000000005467      0x2af zephyr/libzephyr.a(uart_console.c.obj)
 .debug_line    0x0000000000005716      0x40e zephyr/libzephyr.a(exti_stm32.c.obj)
 .debug_line    0x0000000000005b24      0x46e zephyr/libzephyr.a(stm32_ll_clock.c.obj)
 .debug_line    0x0000000000005f92      0x2f8 zephyr/libzephyr.a(stm32f4x_ll_clock.c.obj)
 .debug_line    0x000000000000628a      0x2d2 zephyr/libzephyr.a(flash_page_layout.c.obj)
 .debug_line    0x000000000000655c      0x48c zephyr/libzephyr.a(flash_stm32.c.obj)
 .debug_line    0x00000000000069e8      0x450 zephyr/libzephyr.a(flash_stm32f4x.c.obj)
 .debug_line    0x0000000000006e38      0x3f4 zephyr/libzephyr.a(gpio_stm32.c.obj)
 .debug_line    0x000000000000722c      0x574 zephyr/libzephyr.a(i2c_ll_stm32_v1.c.obj)
 .debug_line    0x00000000000077a0      0x3f1 zephyr/libzephyr.a(i2c_ll_stm32.c.obj)
 .debug_line    0x0000000000007b91      0x3b1 zephyr/libzephyr.a(pinmux_stm32.c.obj)
 .debug_line    0x0000000000007f42      0x41f zephyr/libzephyr.a(uart_stm32.c.obj)
 .debug_line    0x0000000000008361      0x87d zephyr/libzephyr.a(spi_ll_stm32.c.obj)
 .debug_line    0x0000000000008bde      0x4fd zephyr/libzephyr.a(spi.c.obj)
 .debug_line    0x00000000000090db      0x192 zephyr/libzephyr.a(sys_clock_init.c.obj)
 .debug_line    0x000000000000926d      0x381 zephyr/libzephyr.a(cortex_m_systick.c.obj)
 .debug_line    0x00000000000095ee      0x1da zephyr/boards/arm/96b_carbon/libboards__arm__96b_carbon.a(pinmux.c.obj)
 .debug_line    0x00000000000097c8      0x4fc zephyr/subsys/bluetooth/host/libsubsys__bluetooth__host.a(hci_ecc.c.obj)
 .debug_line    0x0000000000009cc4      0x18e zephyr/subsys/bluetooth/host/libsubsys__bluetooth__host.a(uuid.c.obj)
 .debug_line    0x0000000000009e52     0x1166 zephyr/subsys/bluetooth/host/libsubsys__bluetooth__host.a(hci_core.c.obj)
 .debug_line    0x000000000000afb8      0x3e8 zephyr/subsys/bluetooth/host/libsubsys__bluetooth__host.a(crypto.c.obj)
 .debug_line    0x000000000000b3a0      0xa37 zephyr/subsys/bluetooth/host/libsubsys__bluetooth__host.a(conn.c.obj)
 .debug_line    0x000000000000bdd7      0x603 zephyr/subsys/bluetooth/host/libsubsys__bluetooth__host.a(l2cap.c.obj)
 .debug_line    0x000000000000c3da      0xcd7 zephyr/subsys/bluetooth/host/libsubsys__bluetooth__host.a(att.c.obj)
 .debug_line    0x000000000000d0b1      0x97f zephyr/subsys/bluetooth/host/libsubsys__bluetooth__host.a(gatt.c.obj)
 .debug_line    0x000000000000da30      0x26d zephyr/subsys/bluetooth/host/libsubsys__bluetooth__host.a(smp_null.c.obj)
 .debug_line    0x000000000000dc9d      0x3d7 zephyr/subsys/bluetooth/host/mesh/libsubsys__bluetooth__host__mesh.a(main.c.obj)
 .debug_line    0x000000000000e074      0x523 zephyr/subsys/bluetooth/host/mesh/libsubsys__bluetooth__host__mesh.a(adv.c.obj)
 .debug_line    0x000000000000e597      0x4b0 zephyr/subsys/bluetooth/host/mesh/libsubsys__bluetooth__host__mesh.a(beacon.c.obj)
 .debug_line    0x000000000000ea47      0x9fb zephyr/subsys/bluetooth/host/mesh/libsubsys__bluetooth__host__mesh.a(net.c.obj)
 .debug_line    0x000000000000f442      0xa2f zephyr/subsys/bluetooth/host/mesh/libsubsys__bluetooth__host__mesh.a(transport.c.obj)
 .debug_line    0x000000000000fe71      0x93a zephyr/subsys/bluetooth/host/mesh/libsubsys__bluetooth__host__mesh.a(crypto.c.obj)
 .debug_line    0x00000000000107ab      0x6cf zephyr/subsys/bluetooth/host/mesh/libsubsys__bluetooth__host__mesh.a(access.c.obj)
 .debug_line    0x0000000000010e7a     0x1102 zephyr/subsys/bluetooth/host/mesh/libsubsys__bluetooth__host__mesh.a(cfg_srv.c.obj)
 .debug_line    0x0000000000011f7c      0x546 zephyr/subsys/bluetooth/host/mesh/libsubsys__bluetooth__host__mesh.a(health_srv.c.obj)
 .debug_line    0x00000000000124c2      0x9b9 zephyr/subsys/bluetooth/host/mesh/libsubsys__bluetooth__host__mesh.a(friend.c.obj)
 .debug_line    0x0000000000012e7b      0xc16 zephyr/subsys/bluetooth/host/mesh/libsubsys__bluetooth__host__mesh.a(prov.c.obj)
 .debug_line    0x0000000000013a91      0x8bc zephyr/subsys/bluetooth/host/mesh/libsubsys__bluetooth__host__mesh.a(proxy.c.obj)
 .debug_line    0x000000000001434d      0x6f7 zephyr/subsys/net/libsubsys__net.a(buf.c.obj)
 .debug_line    0x0000000000014a44      0x1cf zephyr/kernel/libkernel.a(device.c.obj)
 .debug_line    0x0000000000014c13      0x2ad zephyr/kernel/libkernel.a(errno.c.obj)
 .debug_line    0x0000000000014ec0      0x49d zephyr/kernel/libkernel.a(init.c.obj)
 .debug_line    0x000000000001535d      0x4da zephyr/kernel/libkernel.a(queue.c.obj)
 .debug_line    0x0000000000015837      0x82f zephyr/kernel/libkernel.a(sched.c.obj)
 .debug_line    0x0000000000016066      0x4fe zephyr/kernel/libkernel.a(sem.c.obj)
 .debug_line    0x0000000000016564      0x538 zephyr/kernel/libkernel.a(sys_clock.c.obj)
 .debug_line    0x0000000000016a9c      0x162 zephyr/kernel/libkernel.a(system_work_q.c.obj)
 .debug_line    0x0000000000016bfe      0x810 zephyr/kernel/libkernel.a(thread.c.obj)
 .debug_line    0x000000000001740e      0x5cc zephyr/kernel/libkernel.a(work_q.c.obj)
 .debug_line    0x00000000000179da      0x658 zephyr/kernel/libkernel.a(timer.c.obj)
 .debug_line    0x0000000000018032      0x6d2 zephyr/kernel/libkernel.a(poll.c.obj)
 .debug_line    0x0000000000018704      0x367 zephyr/kernel/libkernel.a(idle.c.obj)
 .debug_line    0x0000000000018a6b      0x331 zephyr/CMakeFiles/offsets.dir/arch/arm/core/offsets/offsets.c.obj
 .debug_line    0x0000000000018d9c       0x94 /opt/zephyr-sdk/sysroots/armv5-zephyr-eabi/usr/lib/arm-zephyr-eabi/6.2.0/armv7e-m/libgcc.a(_ashldi3.o)
 .debug_line    0x0000000000018e30       0xa7 /opt/zephyr-sdk/sysroots/armv5-zephyr-eabi/usr/lib/arm-zephyr-eabi/6.2.0/armv7e-m/libgcc.a(_aeabi_ldivmod.o)
 .debug_line    0x0000000000018ed7       0x89 /opt/zephyr-sdk/sysroots/armv5-zephyr-eabi/usr/lib/arm-zephyr-eabi/6.2.0/armv7e-m/libgcc.a(_aeabi_uldivmod.o)
 .debug_line    0x0000000000018f60      0x1bc /opt/zephyr-sdk/sysroots/armv5-zephyr-eabi/usr/lib/arm-zephyr-eabi/6.2.0/armv7e-m/libgcc.a(_popcountsi2.o)
 .debug_line    0x000000000001911c      0x2f9 /opt/zephyr-sdk/sysroots/armv5-zephyr-eabi/usr/lib/arm-zephyr-eabi/6.2.0/armv7e-m/libgcc.a(_udivmoddi4.o)
 .debug_line    0x0000000000019415       0x89 /opt/zephyr-sdk/sysroots/armv5-zephyr-eabi/usr/lib/arm-zephyr-eabi/6.2.0/armv7e-m/libgcc.a(_dvmd_tls.o)

.debug_str      0x0000000000000000     0xddb5
 .debug_str     0x0000000000000000      0x1b0 zephyr/CMakeFiles/kernel_elf.dir/isr_tables.c.obj
                                        0x1c9 (size before relaxing)
 .debug_str     0x00000000000001b0       0xda libapp.a(string.c.obj)
                                        0x1e5 (size before relaxing)
 .debug_str     0x000000000000028a      0x65e libapp.a(main.c.obj)
                                        0x9eb (size before relaxing)
 .debug_str     0x00000000000008e8      0x279 zephyr/libzephyr.a(printk.c.obj)
                                        0x6fb (size before relaxing)
 .debug_str     0x0000000000000b61       0x2f zephyr/libzephyr.a(configs.c.obj)
                                        0x13b (size before relaxing)
 .debug_str     0x0000000000000b90       0x7d zephyr/libzephyr.a(utils.c.obj)
                                        0x1ec (size before relaxing)
 .debug_str     0x0000000000000c0d      0x1e7 zephyr/libzephyr.a(ecc_dh.c.obj)
                                        0x390 (size before relaxing)
 .debug_str     0x0000000000000df4      0x379 zephyr/libzephyr.a(ecc.c.obj)
                                        0x6c2 (size before relaxing)
 .debug_str     0x000000000000116d       0xe9 zephyr/libzephyr.a(aes_encrypt.c.obj)
                                        0x260 (size before relaxing)
 .debug_str     0x0000000000001256      0x107 zephyr/libzephyr.a(cmac_mode.c.obj)
                                        0x2e7 (size before relaxing)
 .debug_str     0x000000000000135d       0xda zephyr/libzephyr.a(sha256.c.obj)
                                        0x260 (size before relaxing)
 .debug_str     0x0000000000001437       0xe5 zephyr/libzephyr.a(hmac.c.obj)
                                        0x2d3 (size before relaxing)
 .debug_str     0x000000000000151c      0x13d zephyr/libzephyr.a(hmac_prng.c.obj)
                                        0x357 (size before relaxing)
 .debug_str     0x0000000000001659      0x55c zephyr/libzephyr.a(stm32f4xx_ll_utils.c.obj)
                                        0x741 (size before relaxing)
 .debug_str     0x0000000000001bb5       0xdd zephyr/libzephyr.a(system_stm32f4xx.c.obj)
                                        0x3bb (size before relaxing)
 .debug_str     0x0000000000001c92       0x7d zephyr/libzephyr.a(isr_tables.c.obj)
                                        0x206 (size before relaxing)
 .debug_str     0x0000000000001d0f      0x161 zephyr/libzephyr.a(soc.c.obj)
                                        0x64b (size before relaxing)
 .debug_str     0x0000000000001e70      0x1d9 zephyr/libzephyr.a(soc_gpio.c.obj)
                                        0x731 (size before relaxing)
 .debug_str     0x0000000000002049       0x61 zephyr/libzephyr.a(arm_mpu_regions.c.obj)
                                        0x545 (size before relaxing)
 .debug_str     0x00000000000020aa      0x41d zephyr/libzephyr.a(irq_init.c.obj)
                                        0x95c (size before relaxing)
 .debug_str     0x00000000000024c7      0x154 zephyr/libzephyr.a(fault.c.obj)
                                        0x6af (size before relaxing)
 .debug_str     0x000000000000261b      0x112 zephyr/libzephyr.a(irq_manage.c.obj)
                                        0xadd (size before relaxing)
 .debug_str     0x000000000000272d      0x103 zephyr/libzephyr.a(thread.c.obj)
                                        0x688 (size before relaxing)
 .debug_str     0x0000000000002830       0x60 zephyr/libzephyr.a(fatal.c.obj)
                                        0x5f6 (size before relaxing)
 .debug_str     0x0000000000002890       0x8c zephyr/libzephyr.a(sys_fatal_error_handler.c.obj)
                                        0x61b (size before relaxing)
 .debug_str     0x000000000000291c       0x8b zephyr/libzephyr.a(thread_abort.c.obj)
                                        0x682 (size before relaxing)
 .debug_str     0x00000000000029a7      0x1cc zephyr/libzephyr.a(prep_c.c.obj)
                                        0x6e3 (size before relaxing)
 .debug_str     0x0000000000002b73       0x52 zephyr/libzephyr.a(nmi.c.obj)
                                        0x452 (size before relaxing)
 .debug_str     0x0000000000002bc5      0x1b3 zephyr/libzephyr.a(arm_mpu.c.obj)
                                        0x7a0 (size before relaxing)
 .debug_str     0x0000000000002d78      0x100 zephyr/libzephyr.a(uart_console.c.obj)
                                        0x645 (size before relaxing)
 .debug_str     0x0000000000002e78      0x4c8 zephyr/libzephyr.a(exti_stm32.c.obj)
                                        0xa15 (size before relaxing)
 .debug_str     0x0000000000003340      0x2d0 zephyr/libzephyr.a(stm32_ll_clock.c.obj)
                                        0xa76 (size before relaxing)
 .debug_str     0x0000000000003610       0x49 zephyr/libzephyr.a(stm32f4x_ll_clock.c.obj)
                                        0x69a (size before relaxing)
 .debug_str     0x0000000000003659      0x1ec zephyr/libzephyr.a(flash_page_layout.c.obj)
                                        0x709 (size before relaxing)
 .debug_str     0x0000000000003845      0x259 zephyr/libzephyr.a(flash_stm32.c.obj)
                                        0x89e (size before relaxing)
 .debug_str     0x0000000000003a9e       0xac zephyr/libzephyr.a(flash_stm32f4x.c.obj)
                                        0x773 (size before relaxing)
 .debug_str     0x0000000000003b4a      0x3c9 zephyr/libzephyr.a(gpio_stm32.c.obj)
                                        0xac8 (size before relaxing)
 .debug_str     0x0000000000003f13      0x2d7 zephyr/libzephyr.a(i2c_ll_stm32_v1.c.obj)
                                        0x82a (size before relaxing)
 .debug_str     0x00000000000041ea      0x179 zephyr/libzephyr.a(i2c_ll_stm32.c.obj)
                                        0x821 (size before relaxing)
 .debug_str     0x0000000000004363       0xb0 zephyr/libzephyr.a(pinmux_stm32.c.obj)
                                        0x67b (size before relaxing)
 .debug_str     0x0000000000004413      0x5f9 zephyr/libzephyr.a(uart_stm32.c.obj)
                                        0xc46 (size before relaxing)
 .debug_str     0x0000000000004a0c      0x6f2 zephyr/libzephyr.a(spi_ll_stm32.c.obj)
                                       0x12fc (size before relaxing)
 .debug_str     0x00000000000050fe      0x4cd zephyr/libzephyr.a(spi.c.obj)
                                        0xda4 (size before relaxing)
 .debug_str     0x00000000000055cb       0x8a zephyr/libzephyr.a(sys_clock_init.c.obj)
                                        0x54d (size before relaxing)
 .debug_str     0x0000000000005655       0xbd zephyr/libzephyr.a(cortex_m_systick.c.obj)
                                        0xafd (size before relaxing)
 .debug_str     0x0000000000005712       0x92 zephyr/boards/arm/96b_carbon/libboards__arm__96b_carbon.a(pinmux.c.obj)
                                        0x573 (size before relaxing)
 .debug_str     0x00000000000057a4      0x4d6 zephyr/subsys/bluetooth/host/libsubsys__bluetooth__host.a(hci_ecc.c.obj)
                                        0xe6c (size before relaxing)
 .debug_str     0x0000000000005c7a       0xea zephyr/subsys/bluetooth/host/libsubsys__bluetooth__host.a(uuid.c.obj)
                                        0x291 (size before relaxing)
 .debug_str     0x0000000000005d64     0x160f zephyr/subsys/bluetooth/host/libsubsys__bluetooth__host.a(hci_core.c.obj)
                                       0x268c (size before relaxing)
 .debug_str     0x0000000000007373       0x9d zephyr/subsys/bluetooth/host/libsubsys__bluetooth__host.a(crypto.c.obj)
                                        0x9e2 (size before relaxing)
 .debug_str     0x0000000000007410      0x400 zephyr/subsys/bluetooth/host/libsubsys__bluetooth__host.a(conn.c.obj)
                                       0x167f (size before relaxing)
 .debug_str     0x0000000000007810      0x31d zephyr/subsys/bluetooth/host/libsubsys__bluetooth__host.a(l2cap.c.obj)
                                       0x10a9 (size before relaxing)
 .debug_str     0x0000000000007b2d      0x83d zephyr/subsys/bluetooth/host/libsubsys__bluetooth__host.a(att.c.obj)
                                       0x1922 (size before relaxing)
 .debug_str     0x000000000000836a      0x45f zephyr/subsys/bluetooth/host/libsubsys__bluetooth__host.a(gatt.c.obj)
                                       0x119d (size before relaxing)
 .debug_str     0x00000000000087c9       0x7d zephyr/subsys/bluetooth/host/libsubsys__bluetooth__host.a(smp_null.c.obj)
                                        0xbb7 (size before relaxing)
 .debug_str     0x0000000000008846      0x498 zephyr/subsys/bluetooth/host/mesh/libsubsys__bluetooth__host__mesh.a(main.c.obj)
                                        0xe32 (size before relaxing)
 .debug_str     0x0000000000008cde      0x29f zephyr/subsys/bluetooth/host/mesh/libsubsys__bluetooth__host__mesh.a(adv.c.obj)
                                       0x1162 (size before relaxing)
 .debug_str     0x0000000000008f7d      0x219 zephyr/subsys/bluetooth/host/mesh/libsubsys__bluetooth__host__mesh.a(beacon.c.obj)
                                        0xdd9 (size before relaxing)
 .debug_str     0x0000000000009196      0x4fe zephyr/subsys/bluetooth/host/mesh/libsubsys__bluetooth__host__mesh.a(net.c.obj)
                                       0x12bf (size before relaxing)
 .debug_str     0x0000000000009694      0x4ab zephyr/subsys/bluetooth/host/mesh/libsubsys__bluetooth__host__mesh.a(transport.c.obj)
                                       0x1222 (size before relaxing)
 .debug_str     0x0000000000009b3f      0x248 zephyr/subsys/bluetooth/host/mesh/libsubsys__bluetooth__host__mesh.a(crypto.c.obj)
                                        0xb3a (size before relaxing)
 .debug_str     0x0000000000009d87      0x216 zephyr/subsys/bluetooth/host/mesh/libsubsys__bluetooth__host__mesh.a(access.c.obj)
                                        0xed0 (size before relaxing)
 .debug_str     0x0000000000009f9d      0x56a zephyr/subsys/bluetooth/host/mesh/libsubsys__bluetooth__host__mesh.a(cfg_srv.c.obj)
                                       0x1548 (size before relaxing)
 .debug_str     0x000000000000a507      0x1dd zephyr/subsys/bluetooth/host/mesh/libsubsys__bluetooth__host__mesh.a(health_srv.c.obj)
                                        0xd52 (size before relaxing)
 .debug_str     0x000000000000a6e4      0x3a1 zephyr/subsys/bluetooth/host/mesh/libsubsys__bluetooth__host__mesh.a(friend.c.obj)
                                       0x13ac (size before relaxing)
 .debug_str     0x000000000000aa85      0x479 zephyr/subsys/bluetooth/host/mesh/libsubsys__bluetooth__host__mesh.a(prov.c.obj)
                                       0x156e (size before relaxing)
 .debug_str     0x000000000000aefe      0x340 zephyr/subsys/bluetooth/host/mesh/libsubsys__bluetooth__host__mesh.a(proxy.c.obj)
                                       0x14f2 (size before relaxing)
 .debug_str     0x000000000000b23e      0x139 zephyr/subsys/net/libsubsys__net.a(buf.c.obj)
                                        0x8bb (size before relaxing)
 .debug_str     0x000000000000b377      0x110 zephyr/kernel/libkernel.a(device.c.obj)
                                        0x5ef (size before relaxing)
 .debug_str     0x000000000000b487       0x3c zephyr/kernel/libkernel.a(errno.c.obj)
                                        0x577 (size before relaxing)
 .debug_str     0x000000000000b4c3      0x168 zephyr/kernel/libkernel.a(init.c.obj)
                                        0xd79 (size before relaxing)
 .debug_str     0x000000000000b62b       0xb8 zephyr/kernel/libkernel.a(queue.c.obj)
                                        0x947 (size before relaxing)
 .debug_str     0x000000000000b6e3      0x579 zephyr/kernel/libkernel.a(sched.c.obj)
                                        0xcaa (size before relaxing)
 .debug_str     0x000000000000bc5c      0x101 zephyr/kernel/libkernel.a(sem.c.obj)
                                        0xa19 (size before relaxing)
 .debug_str     0x000000000000bd5d       0xe6 zephyr/kernel/libkernel.a(sys_clock.c.obj)
                                        0x8f5 (size before relaxing)
 .debug_str     0x000000000000be43       0xaa zephyr/kernel/libkernel.a(system_work_q.c.obj)
                                        0x572 (size before relaxing)
 .debug_str     0x000000000000beed      0x2c2 zephyr/kernel/libkernel.a(thread.c.obj)
                                        0xd74 (size before relaxing)
 .debug_str     0x000000000000c1af       0x69 zephyr/kernel/libkernel.a(work_q.c.obj)
                                        0xaf4 (size before relaxing)
 .debug_str     0x000000000000c218      0x131 zephyr/kernel/libkernel.a(timer.c.obj)
                                        0xad4 (size before relaxing)
 .debug_str     0x000000000000c349      0x1df zephyr/kernel/libkernel.a(poll.c.obj)
                                        0xc8b (size before relaxing)
 .debug_str     0x000000000000c528       0x6d zephyr/kernel/libkernel.a(idle.c.obj)
                                        0x64b (size before relaxing)
 .debug_str     0x000000000000c595      0xbb5 zephyr/CMakeFiles/offsets.dir/arch/arm/core/offsets/offsets.c.obj
                                       0x10f0 (size before relaxing)
 .debug_str     0x000000000000d14a      0xb6f /opt/zephyr-sdk/sysroots/armv5-zephyr-eabi/usr/lib/arm-zephyr-eabi/6.2.0/armv7e-m/libgcc.a(_popcountsi2.o)
                                        0xc51 (size before relaxing)
 .debug_str     0x000000000000dcb9       0xfc /opt/zephyr-sdk/sysroots/armv5-zephyr-eabi/usr/lib/arm-zephyr-eabi/6.2.0/armv7e-m/libgcc.a(_udivmoddi4.o)
                                        0xcac (size before relaxing)

.comment        0x0000000000000000       0x11
 .comment       0x0000000000000000       0x11 zephyr/CMakeFiles/kernel_elf.dir/isr_tables.c.obj
                                         0x12 (size before relaxing)
 .comment       0x0000000000000011       0x12 libapp.a(string.c.obj)
 .comment       0x0000000000000011       0x12 libapp.a(main.c.obj)
 .comment       0x0000000000000011       0x12 zephyr/libzephyr.a(printk.c.obj)
 .comment       0x0000000000000011       0x12 zephyr/libzephyr.a(configs.c.obj)
 .comment       0x0000000000000011       0x12 zephyr/libzephyr.a(utils.c.obj)
 .comment       0x0000000000000011       0x12 zephyr/libzephyr.a(ecc_dh.c.obj)
 .comment       0x0000000000000011       0x12 zephyr/libzephyr.a(ecc.c.obj)
 .comment       0x0000000000000011       0x12 zephyr/libzephyr.a(aes_encrypt.c.obj)
 .comment       0x0000000000000011       0x12 zephyr/libzephyr.a(cmac_mode.c.obj)
 .comment       0x0000000000000011       0x12 zephyr/libzephyr.a(sha256.c.obj)
 .comment       0x0000000000000011       0x12 zephyr/libzephyr.a(hmac.c.obj)
 .comment       0x0000000000000011       0x12 zephyr/libzephyr.a(hmac_prng.c.obj)
 .comment       0x0000000000000011       0x12 zephyr/libzephyr.a(stm32f4xx_ll_utils.c.obj)
 .comment       0x0000000000000011       0x12 zephyr/libzephyr.a(system_stm32f4xx.c.obj)
 .comment       0x0000000000000011       0x12 zephyr/libzephyr.a(isr_tables.c.obj)
 .comment       0x0000000000000011       0x12 zephyr/libzephyr.a(soc.c.obj)
 .comment       0x0000000000000011       0x12 zephyr/libzephyr.a(soc_gpio.c.obj)
 .comment       0x0000000000000011       0x12 zephyr/libzephyr.a(arm_mpu_regions.c.obj)
 .comment       0x0000000000000011       0x12 zephyr/libzephyr.a(irq_init.c.obj)
 .comment       0x0000000000000011       0x12 zephyr/libzephyr.a(fault.c.obj)
 .comment       0x0000000000000011       0x12 zephyr/libzephyr.a(irq_manage.c.obj)
 .comment       0x0000000000000011       0x12 zephyr/libzephyr.a(thread.c.obj)
 .comment       0x0000000000000011       0x12 zephyr/libzephyr.a(fatal.c.obj)
 .comment       0x0000000000000011       0x12 zephyr/libzephyr.a(sys_fatal_error_handler.c.obj)
 .comment       0x0000000000000011       0x12 zephyr/libzephyr.a(thread_abort.c.obj)
 .comment       0x0000000000000011       0x12 zephyr/libzephyr.a(prep_c.c.obj)
 .comment       0x0000000000000011       0x12 zephyr/libzephyr.a(nmi.c.obj)
 .comment       0x0000000000000011       0x12 zephyr/libzephyr.a(arm_mpu.c.obj)
 .comment       0x0000000000000011       0x12 zephyr/libzephyr.a(uart_console.c.obj)
 .comment       0x0000000000000011       0x12 zephyr/libzephyr.a(exti_stm32.c.obj)
 .comment       0x0000000000000011       0x12 zephyr/libzephyr.a(stm32_ll_clock.c.obj)
 .comment       0x0000000000000011       0x12 zephyr/libzephyr.a(stm32f4x_ll_clock.c.obj)
 .comment       0x0000000000000011       0x12 zephyr/libzephyr.a(flash_page_layout.c.obj)
 .comment       0x0000000000000011       0x12 zephyr/libzephyr.a(flash_stm32.c.obj)
 .comment       0x0000000000000011       0x12 zephyr/libzephyr.a(flash_stm32f4x.c.obj)
 .comment       0x0000000000000011       0x12 zephyr/libzephyr.a(gpio_stm32.c.obj)
 .comment       0x0000000000000011       0x12 zephyr/libzephyr.a(i2c_ll_stm32_v1.c.obj)
 .comment       0x0000000000000011       0x12 zephyr/libzephyr.a(i2c_ll_stm32.c.obj)
 .comment       0x0000000000000011       0x12 zephyr/libzephyr.a(pinmux_stm32.c.obj)
 .comment       0x0000000000000011       0x12 zephyr/libzephyr.a(uart_stm32.c.obj)
 .comment       0x0000000000000011       0x12 zephyr/libzephyr.a(spi_ll_stm32.c.obj)
 .comment       0x0000000000000011       0x12 zephyr/libzephyr.a(spi.c.obj)
 .comment       0x0000000000000011       0x12 zephyr/libzephyr.a(sys_clock_init.c.obj)
 .comment       0x0000000000000011       0x12 zephyr/libzephyr.a(cortex_m_systick.c.obj)
 .comment       0x0000000000000011       0x12 zephyr/boards/arm/96b_carbon/libboards__arm__96b_carbon.a(pinmux.c.obj)
 .comment       0x0000000000000011       0x12 zephyr/subsys/bluetooth/host/libsubsys__bluetooth__host.a(hci_ecc.c.obj)
 .comment       0x0000000000000011       0x12 zephyr/subsys/bluetooth/host/libsubsys__bluetooth__host.a(uuid.c.obj)
 .comment       0x0000000000000011       0x12 zephyr/subsys/bluetooth/host/libsubsys__bluetooth__host.a(hci_core.c.obj)
 .comment       0x0000000000000011       0x12 zephyr/subsys/bluetooth/host/libsubsys__bluetooth__host.a(crypto.c.obj)
 .comment       0x0000000000000011       0x12 zephyr/subsys/bluetooth/host/libsubsys__bluetooth__host.a(conn.c.obj)
 .comment       0x0000000000000011       0x12 zephyr/subsys/bluetooth/host/libsubsys__bluetooth__host.a(l2cap.c.obj)
 .comment       0x0000000000000011       0x12 zephyr/subsys/bluetooth/host/libsubsys__bluetooth__host.a(att.c.obj)
 .comment       0x0000000000000011       0x12 zephyr/subsys/bluetooth/host/libsubsys__bluetooth__host.a(gatt.c.obj)
 .comment       0x0000000000000011       0x12 zephyr/subsys/bluetooth/host/libsubsys__bluetooth__host.a(smp_null.c.obj)
 .comment       0x0000000000000011       0x12 zephyr/subsys/bluetooth/host/mesh/libsubsys__bluetooth__host__mesh.a(main.c.obj)
 .comment       0x0000000000000011       0x12 zephyr/subsys/bluetooth/host/mesh/libsubsys__bluetooth__host__mesh.a(adv.c.obj)
 .comment       0x0000000000000011       0x12 zephyr/subsys/bluetooth/host/mesh/libsubsys__bluetooth__host__mesh.a(beacon.c.obj)
 .comment       0x0000000000000011       0x12 zephyr/subsys/bluetooth/host/mesh/libsubsys__bluetooth__host__mesh.a(net.c.obj)
 .comment       0x0000000000000011       0x12 zephyr/subsys/bluetooth/host/mesh/libsubsys__bluetooth__host__mesh.a(transport.c.obj)
 .comment       0x0000000000000011       0x12 zephyr/subsys/bluetooth/host/mesh/libsubsys__bluetooth__host__mesh.a(crypto.c.obj)
 .comment       0x0000000000000011       0x12 zephyr/subsys/bluetooth/host/mesh/libsubsys__bluetooth__host__mesh.a(access.c.obj)
 .comment       0x0000000000000011       0x12 zephyr/subsys/bluetooth/host/mesh/libsubsys__bluetooth__host__mesh.a(cfg_srv.c.obj)
 .comment       0x0000000000000011       0x12 zephyr/subsys/bluetooth/host/mesh/libsubsys__bluetooth__host__mesh.a(health_srv.c.obj)
 .comment       0x0000000000000011       0x12 zephyr/subsys/bluetooth/host/mesh/libsubsys__bluetooth__host__mesh.a(friend.c.obj)
 .comment       0x0000000000000011       0x12 zephyr/subsys/bluetooth/host/mesh/libsubsys__bluetooth__host__mesh.a(prov.c.obj)
 .comment       0x0000000000000011       0x12 zephyr/subsys/bluetooth/host/mesh/libsubsys__bluetooth__host__mesh.a(proxy.c.obj)
 .comment       0x0000000000000011       0x12 zephyr/subsys/net/libsubsys__net.a(buf.c.obj)
 .comment       0x0000000000000011       0x12 zephyr/kernel/libkernel.a(device.c.obj)
 .comment       0x0000000000000011       0x12 zephyr/kernel/libkernel.a(errno.c.obj)
 .comment       0x0000000000000011       0x12 zephyr/kernel/libkernel.a(init.c.obj)
 .comment       0x0000000000000011       0x12 zephyr/kernel/libkernel.a(queue.c.obj)
 .comment       0x0000000000000011       0x12 zephyr/kernel/libkernel.a(sched.c.obj)
 .comment       0x0000000000000011       0x12 zephyr/kernel/libkernel.a(sem.c.obj)
 .comment       0x0000000000000011       0x12 zephyr/kernel/libkernel.a(sys_clock.c.obj)
 .comment       0x0000000000000011       0x12 zephyr/kernel/libkernel.a(system_work_q.c.obj)
 .comment       0x0000000000000011       0x12 zephyr/kernel/libkernel.a(thread.c.obj)
 .comment       0x0000000000000011       0x12 zephyr/kernel/libkernel.a(work_q.c.obj)
 .comment       0x0000000000000011       0x12 zephyr/kernel/libkernel.a(timer.c.obj)
 .comment       0x0000000000000011       0x12 zephyr/kernel/libkernel.a(poll.c.obj)
 .comment       0x0000000000000011       0x12 zephyr/kernel/libkernel.a(idle.c.obj)
 .comment       0x0000000000000011       0x12 zephyr/CMakeFiles/offsets.dir/arch/arm/core/offsets/offsets.c.obj
 .comment       0x0000000000000011       0x12 /opt/zephyr-sdk/sysroots/armv5-zephyr-eabi/usr/lib/arm-zephyr-eabi/6.2.0/armv7e-m/libgcc.a(_popcountsi2.o)
 .comment       0x0000000000000011       0x12 /opt/zephyr-sdk/sysroots/armv5-zephyr-eabi/usr/lib/arm-zephyr-eabi/6.2.0/armv7e-m/libgcc.a(_udivmoddi4.o)

.ARM.attributes
                0x0000000000000000       0x31
 .ARM.attributes
                0x0000000000000000       0x33 zephyr/CMakeFiles/kernel_elf.dir/isr_tables.c.obj
 .ARM.attributes
                0x0000000000000033       0x33 libapp.a(string.c.obj)
 .ARM.attributes
                0x0000000000000066       0x33 libapp.a(main.c.obj)
 .ARM.attributes
                0x0000000000000099       0x33 zephyr/libzephyr.a(printk.c.obj)
 .ARM.attributes
                0x00000000000000cc       0x33 zephyr/libzephyr.a(configs.c.obj)
 .ARM.attributes
                0x00000000000000ff       0x33 zephyr/libzephyr.a(utils.c.obj)
 .ARM.attributes
                0x0000000000000132       0x33 zephyr/libzephyr.a(ecc_dh.c.obj)
 .ARM.attributes
                0x0000000000000165       0x33 zephyr/libzephyr.a(ecc.c.obj)
 .ARM.attributes
                0x0000000000000198       0x33 zephyr/libzephyr.a(aes_encrypt.c.obj)
 .ARM.attributes
                0x00000000000001cb       0x33 zephyr/libzephyr.a(cmac_mode.c.obj)
 .ARM.attributes
                0x00000000000001fe       0x33 zephyr/libzephyr.a(sha256.c.obj)
 .ARM.attributes
                0x0000000000000231       0x33 zephyr/libzephyr.a(hmac.c.obj)
 .ARM.attributes
                0x0000000000000264       0x33 zephyr/libzephyr.a(hmac_prng.c.obj)
 .ARM.attributes
                0x0000000000000297       0x33 zephyr/libzephyr.a(stm32f4xx_ll_utils.c.obj)
 .ARM.attributes
                0x00000000000002ca       0x33 zephyr/libzephyr.a(system_stm32f4xx.c.obj)
 .ARM.attributes
                0x00000000000002fd       0x33 zephyr/libzephyr.a(isr_tables.c.obj)
 .ARM.attributes
                0x0000000000000330       0x33 zephyr/libzephyr.a(soc.c.obj)
 .ARM.attributes
                0x0000000000000363       0x33 zephyr/libzephyr.a(soc_gpio.c.obj)
 .ARM.attributes
                0x0000000000000396       0x33 zephyr/libzephyr.a(arm_mpu_regions.c.obj)
 .ARM.attributes
                0x00000000000003c9       0x21 zephyr/libzephyr.a(exc_exit.S.obj)
 .ARM.attributes
                0x00000000000003ea       0x33 zephyr/libzephyr.a(irq_init.c.obj)
 .ARM.attributes
                0x000000000000041d       0x21 zephyr/libzephyr.a(swap.S.obj)
 .ARM.attributes
                0x000000000000043e       0x33 zephyr/libzephyr.a(fault.c.obj)
 .ARM.attributes
                0x0000000000000471       0x33 zephyr/libzephyr.a(irq_manage.c.obj)
 .ARM.attributes
                0x00000000000004a4       0x33 zephyr/libzephyr.a(thread.c.obj)
 .ARM.attributes
                0x00000000000004d7       0x21 zephyr/libzephyr.a(cpu_idle.S.obj)
 .ARM.attributes
                0x00000000000004f8       0x21 zephyr/libzephyr.a(fault_s.S.obj)
 .ARM.attributes
                0x0000000000000519       0x33 zephyr/libzephyr.a(fatal.c.obj)
 .ARM.attributes
                0x000000000000054c       0x33 zephyr/libzephyr.a(sys_fatal_error_handler.c.obj)
 .ARM.attributes
                0x000000000000057f       0x33 zephyr/libzephyr.a(thread_abort.c.obj)
 .ARM.attributes
                0x00000000000005b2       0x21 zephyr/libzephyr.a(isr_wrapper.S.obj)
 .ARM.attributes
                0x00000000000005d3       0x21 zephyr/libzephyr.a(vector_table.S.obj)
 .ARM.attributes
                0x00000000000005f4       0x21 zephyr/libzephyr.a(reset.S.obj)
 .ARM.attributes
                0x0000000000000615       0x21 zephyr/libzephyr.a(nmi_on_reset.S.obj)
 .ARM.attributes
                0x0000000000000636       0x33 zephyr/libzephyr.a(prep_c.c.obj)
 .ARM.attributes
                0x0000000000000669       0x33 zephyr/libzephyr.a(nmi.c.obj)
 .ARM.attributes
                0x000000000000069c       0x33 zephyr/libzephyr.a(arm_mpu.c.obj)
 .ARM.attributes
                0x00000000000006cf       0x33 zephyr/libzephyr.a(uart_console.c.obj)
 .ARM.attributes
                0x0000000000000702       0x33 zephyr/libzephyr.a(exti_stm32.c.obj)
 .ARM.attributes
                0x0000000000000735       0x33 zephyr/libzephyr.a(stm32_ll_clock.c.obj)
 .ARM.attributes
                0x0000000000000768       0x33 zephyr/libzephyr.a(stm32f4x_ll_clock.c.obj)
 .ARM.attributes
                0x000000000000079b       0x33 zephyr/libzephyr.a(flash_page_layout.c.obj)
 .ARM.attributes
                0x00000000000007ce       0x33 zephyr/libzephyr.a(flash_stm32.c.obj)
 .ARM.attributes
                0x0000000000000801       0x33 zephyr/libzephyr.a(flash_stm32f4x.c.obj)
 .ARM.attributes
                0x0000000000000834       0x33 zephyr/libzephyr.a(gpio_stm32.c.obj)
 .ARM.attributes
                0x0000000000000867       0x33 zephyr/libzephyr.a(i2c_ll_stm32_v1.c.obj)
 .ARM.attributes
                0x000000000000089a       0x33 zephyr/libzephyr.a(i2c_ll_stm32.c.obj)
 .ARM.attributes
                0x00000000000008cd       0x33 zephyr/libzephyr.a(pinmux_stm32.c.obj)
 .ARM.attributes
                0x0000000000000900       0x33 zephyr/libzephyr.a(uart_stm32.c.obj)
 .ARM.attributes
                0x0000000000000933       0x33 zephyr/libzephyr.a(spi_ll_stm32.c.obj)
 .ARM.attributes
                0x0000000000000966       0x33 zephyr/libzephyr.a(spi.c.obj)
 .ARM.attributes
                0x0000000000000999       0x33 zephyr/libzephyr.a(sys_clock_init.c.obj)
 .ARM.attributes
                0x00000000000009cc       0x33 zephyr/libzephyr.a(cortex_m_systick.c.obj)
 .ARM.attributes
                0x00000000000009ff       0x33 zephyr/boards/arm/96b_carbon/libboards__arm__96b_carbon.a(pinmux.c.obj)
 .ARM.attributes
                0x0000000000000a32       0x33 zephyr/subsys/bluetooth/host/libsubsys__bluetooth__host.a(hci_ecc.c.obj)
 .ARM.attributes
                0x0000000000000a65       0x33 zephyr/subsys/bluetooth/host/libsubsys__bluetooth__host.a(uuid.c.obj)
 .ARM.attributes
                0x0000000000000a98       0x33 zephyr/subsys/bluetooth/host/libsubsys__bluetooth__host.a(hci_core.c.obj)
 .ARM.attributes
                0x0000000000000acb       0x33 zephyr/subsys/bluetooth/host/libsubsys__bluetooth__host.a(crypto.c.obj)
 .ARM.attributes
                0x0000000000000afe       0x33 zephyr/subsys/bluetooth/host/libsubsys__bluetooth__host.a(conn.c.obj)
 .ARM.attributes
                0x0000000000000b31       0x33 zephyr/subsys/bluetooth/host/libsubsys__bluetooth__host.a(l2cap.c.obj)
 .ARM.attributes
                0x0000000000000b64       0x33 zephyr/subsys/bluetooth/host/libsubsys__bluetooth__host.a(att.c.obj)
 .ARM.attributes
                0x0000000000000b97       0x33 zephyr/subsys/bluetooth/host/libsubsys__bluetooth__host.a(gatt.c.obj)
 .ARM.attributes
                0x0000000000000bca       0x33 zephyr/subsys/bluetooth/host/libsubsys__bluetooth__host.a(smp_null.c.obj)
 .ARM.attributes
                0x0000000000000bfd       0x33 zephyr/subsys/bluetooth/host/mesh/libsubsys__bluetooth__host__mesh.a(main.c.obj)
 .ARM.attributes
                0x0000000000000c30       0x33 zephyr/subsys/bluetooth/host/mesh/libsubsys__bluetooth__host__mesh.a(adv.c.obj)
 .ARM.attributes
                0x0000000000000c63       0x33 zephyr/subsys/bluetooth/host/mesh/libsubsys__bluetooth__host__mesh.a(beacon.c.obj)
 .ARM.attributes
                0x0000000000000c96       0x33 zephyr/subsys/bluetooth/host/mesh/libsubsys__bluetooth__host__mesh.a(net.c.obj)
 .ARM.attributes
                0x0000000000000cc9       0x33 zephyr/subsys/bluetooth/host/mesh/libsubsys__bluetooth__host__mesh.a(transport.c.obj)
 .ARM.attributes
                0x0000000000000cfc       0x33 zephyr/subsys/bluetooth/host/mesh/libsubsys__bluetooth__host__mesh.a(crypto.c.obj)
 .ARM.attributes
                0x0000000000000d2f       0x33 zephyr/subsys/bluetooth/host/mesh/libsubsys__bluetooth__host__mesh.a(access.c.obj)
 .ARM.attributes
                0x0000000000000d62       0x33 zephyr/subsys/bluetooth/host/mesh/libsubsys__bluetooth__host__mesh.a(cfg_srv.c.obj)
 .ARM.attributes
                0x0000000000000d95       0x33 zephyr/subsys/bluetooth/host/mesh/libsubsys__bluetooth__host__mesh.a(health_srv.c.obj)
 .ARM.attributes
                0x0000000000000dc8       0x33 zephyr/subsys/bluetooth/host/mesh/libsubsys__bluetooth__host__mesh.a(friend.c.obj)
 .ARM.attributes
                0x0000000000000dfb       0x33 zephyr/subsys/bluetooth/host/mesh/libsubsys__bluetooth__host__mesh.a(prov.c.obj)
 .ARM.attributes
                0x0000000000000e2e       0x33 zephyr/subsys/bluetooth/host/mesh/libsubsys__bluetooth__host__mesh.a(proxy.c.obj)
 .ARM.attributes
                0x0000000000000e61       0x33 zephyr/subsys/net/libsubsys__net.a(buf.c.obj)
 .ARM.attributes
                0x0000000000000e94       0x33 zephyr/kernel/libkernel.a(device.c.obj)
 .ARM.attributes
                0x0000000000000ec7       0x33 zephyr/kernel/libkernel.a(errno.c.obj)
 .ARM.attributes
                0x0000000000000efa       0x33 zephyr/kernel/libkernel.a(init.c.obj)
 .ARM.attributes
                0x0000000000000f2d       0x33 zephyr/kernel/libkernel.a(queue.c.obj)
 .ARM.attributes
                0x0000000000000f60       0x33 zephyr/kernel/libkernel.a(sched.c.obj)
 .ARM.attributes
                0x0000000000000f93       0x33 zephyr/kernel/libkernel.a(sem.c.obj)
 .ARM.attributes
                0x0000000000000fc6       0x33 zephyr/kernel/libkernel.a(sys_clock.c.obj)
 .ARM.attributes
                0x0000000000000ff9       0x33 zephyr/kernel/libkernel.a(system_work_q.c.obj)
 .ARM.attributes
                0x000000000000102c       0x33 zephyr/kernel/libkernel.a(thread.c.obj)
 .ARM.attributes
                0x000000000000105f       0x33 zephyr/kernel/libkernel.a(work_q.c.obj)
 .ARM.attributes
                0x0000000000001092       0x33 zephyr/kernel/libkernel.a(timer.c.obj)
 .ARM.attributes
                0x00000000000010c5       0x33 zephyr/kernel/libkernel.a(poll.c.obj)
 .ARM.attributes
                0x00000000000010f8       0x33 zephyr/kernel/libkernel.a(idle.c.obj)
 .ARM.attributes
                0x000000000000112b       0x33 zephyr/CMakeFiles/offsets.dir/arch/arm/core/offsets/offsets.c.obj
 .ARM.attributes
                0x000000000000115e       0x1e /opt/zephyr-sdk/sysroots/armv5-zephyr-eabi/usr/lib/arm-zephyr-eabi/6.2.0/armv7e-m/libgcc.a(_ashldi3.o)
 .ARM.attributes
                0x000000000000117c       0x1e /opt/zephyr-sdk/sysroots/armv5-zephyr-eabi/usr/lib/arm-zephyr-eabi/6.2.0/armv7e-m/libgcc.a(_aeabi_ldivmod.o)
 .ARM.attributes
                0x000000000000119a       0x1e /opt/zephyr-sdk/sysroots/armv5-zephyr-eabi/usr/lib/arm-zephyr-eabi/6.2.0/armv7e-m/libgcc.a(_aeabi_uldivmod.o)
 .ARM.attributes
                0x00000000000011b8       0x2e /opt/zephyr-sdk/sysroots/armv5-zephyr-eabi/usr/lib/arm-zephyr-eabi/6.2.0/armv7e-m/libgcc.a(_popcountsi2.o)
 .ARM.attributes
                0x00000000000011e6       0x2e /opt/zephyr-sdk/sysroots/armv5-zephyr-eabi/usr/lib/arm-zephyr-eabi/6.2.0/armv7e-m/libgcc.a(_udivmoddi4.o)
 .ARM.attributes
                0x0000000000001214       0x1e /opt/zephyr-sdk/sysroots/armv5-zephyr-eabi/usr/lib/arm-zephyr-eabi/6.2.0/armv7e-m/libgcc.a(_dvmd_tls.o)

.debug_loc      0x0000000000000000    0x2df5b
 .debug_loc     0x0000000000000000      0x8f5 libapp.a(string.c.obj)
 .debug_loc     0x00000000000008f5      0x1db libapp.a(main.c.obj)
 .debug_loc     0x0000000000000ad0      0xad4 zephyr/libzephyr.a(printk.c.obj)
 .debug_loc     0x00000000000015a4      0x1b6 zephyr/libzephyr.a(utils.c.obj)
 .debug_loc     0x000000000000175a      0x238 zephyr/libzephyr.a(ecc_dh.c.obj)
 .debug_loc     0x0000000000001992     0x1c45 zephyr/libzephyr.a(ecc.c.obj)
 .debug_loc     0x00000000000035d7      0x22e zephyr/libzephyr.a(aes_encrypt.c.obj)
 .debug_loc     0x0000000000003805      0x32b zephyr/libzephyr.a(cmac_mode.c.obj)
 .debug_loc     0x0000000000003b30      0x873 zephyr/libzephyr.a(sha256.c.obj)
 .debug_loc     0x00000000000043a3      0x39a zephyr/libzephyr.a(hmac.c.obj)
 .debug_loc     0x000000000000473d      0x28a zephyr/libzephyr.a(hmac_prng.c.obj)
 .debug_loc     0x00000000000049c7      0x675 zephyr/libzephyr.a(stm32f4xx_ll_utils.c.obj)
 .debug_loc     0x000000000000503c      0x11c zephyr/libzephyr.a(system_stm32f4xx.c.obj)
 .debug_loc     0x0000000000005158       0x21 zephyr/libzephyr.a(soc.c.obj)
 .debug_loc     0x0000000000005179      0x3c3 zephyr/libzephyr.a(soc_gpio.c.obj)
 .debug_loc     0x000000000000553c       0x5e zephyr/libzephyr.a(irq_init.c.obj)
 .debug_loc     0x000000000000559a      0x314 zephyr/libzephyr.a(fault.c.obj)
 .debug_loc     0x00000000000058ae      0x143 zephyr/libzephyr.a(irq_manage.c.obj)
 .debug_loc     0x00000000000059f1      0x209 zephyr/libzephyr.a(thread.c.obj)
 .debug_loc     0x0000000000005bfa       0xf2 zephyr/libzephyr.a(fatal.c.obj)
 .debug_loc     0x0000000000005cec       0x42 zephyr/libzephyr.a(sys_fatal_error_handler.c.obj)
 .debug_loc     0x0000000000005d2e       0x3f zephyr/libzephyr.a(thread_abort.c.obj)
 .debug_loc     0x0000000000005d6d      0x26c zephyr/libzephyr.a(arm_mpu.c.obj)
 .debug_loc     0x0000000000005fd9       0xbf zephyr/libzephyr.a(uart_console.c.obj)
 .debug_loc     0x0000000000006098      0x436 zephyr/libzephyr.a(exti_stm32.c.obj)
 .debug_loc     0x00000000000064ce      0x3ec zephyr/libzephyr.a(stm32_ll_clock.c.obj)
 .debug_loc     0x00000000000068ba       0x16 zephyr/libzephyr.a(stm32f4x_ll_clock.c.obj)
 .debug_loc     0x00000000000068d0      0x3d0 zephyr/libzephyr.a(flash_page_layout.c.obj)
 .debug_loc     0x0000000000006ca0      0x5b8 zephyr/libzephyr.a(flash_stm32.c.obj)
 .debug_loc     0x0000000000007258      0x530 zephyr/libzephyr.a(flash_stm32f4x.c.obj)
 .debug_loc     0x0000000000007788      0x7af zephyr/libzephyr.a(gpio_stm32.c.obj)
 .debug_loc     0x0000000000007f37      0xb53 zephyr/libzephyr.a(i2c_ll_stm32_v1.c.obj)
 .debug_loc     0x0000000000008a8a      0x389 zephyr/libzephyr.a(i2c_ll_stm32.c.obj)
 .debug_loc     0x0000000000008e13      0x1ed zephyr/libzephyr.a(pinmux_stm32.c.obj)
 .debug_loc     0x0000000000009000      0x2c9 zephyr/libzephyr.a(uart_stm32.c.obj)
 .debug_loc     0x00000000000092c9     0x14f7 zephyr/libzephyr.a(spi_ll_stm32.c.obj)
 .debug_loc     0x000000000000a7c0      0x6eb zephyr/libzephyr.a(spi.c.obj)
 .debug_loc     0x000000000000aeab       0xb5 zephyr/libzephyr.a(cortex_m_systick.c.obj)
 .debug_loc     0x000000000000af60       0x21 zephyr/boards/arm/96b_carbon/libboards__arm__96b_carbon.a(pinmux.c.obj)
 .debug_loc     0x000000000000af81      0x766 zephyr/subsys/bluetooth/host/libsubsys__bluetooth__host.a(hci_ecc.c.obj)
 .debug_loc     0x000000000000b6e7      0x260 zephyr/subsys/bluetooth/host/libsubsys__bluetooth__host.a(uuid.c.obj)
 .debug_loc     0x000000000000b947     0x327e zephyr/subsys/bluetooth/host/libsubsys__bluetooth__host.a(hci_core.c.obj)
 .debug_loc     0x000000000000ebc5      0x379 zephyr/subsys/bluetooth/host/libsubsys__bluetooth__host.a(crypto.c.obj)
 .debug_loc     0x000000000000ef3e     0x16bb zephyr/subsys/bluetooth/host/libsubsys__bluetooth__host.a(conn.c.obj)
 .debug_loc     0x00000000000105f9      0xa6f zephyr/subsys/bluetooth/host/libsubsys__bluetooth__host.a(l2cap.c.obj)
 .debug_loc     0x0000000000011068     0x2951 zephyr/subsys/bluetooth/host/libsubsys__bluetooth__host.a(att.c.obj)
 .debug_loc     0x00000000000139b9     0x27f1 zephyr/subsys/bluetooth/host/libsubsys__bluetooth__host.a(gatt.c.obj)
 .debug_loc     0x00000000000161aa      0x125 zephyr/subsys/bluetooth/host/libsubsys__bluetooth__host.a(smp_null.c.obj)
 .debug_loc     0x00000000000162cf      0x207 zephyr/subsys/bluetooth/host/mesh/libsubsys__bluetooth__host__mesh.a(main.c.obj)
 .debug_loc     0x00000000000164d6      0x5af zephyr/subsys/bluetooth/host/mesh/libsubsys__bluetooth__host__mesh.a(adv.c.obj)
 .debug_loc     0x0000000000016a85      0x515 zephyr/subsys/bluetooth/host/mesh/libsubsys__bluetooth__host__mesh.a(beacon.c.obj)
 .debug_loc     0x0000000000016f9a     0x1a44 zephyr/subsys/bluetooth/host/mesh/libsubsys__bluetooth__host__mesh.a(net.c.obj)
 .debug_loc     0x00000000000189de     0x1dcd zephyr/subsys/bluetooth/host/mesh/libsubsys__bluetooth__host__mesh.a(transport.c.obj)
 .debug_loc     0x000000000001a7ab     0x1b89 zephyr/subsys/bluetooth/host/mesh/libsubsys__bluetooth__host__mesh.a(crypto.c.obj)
 .debug_loc     0x000000000001c334      0xfbb zephyr/subsys/bluetooth/host/mesh/libsubsys__bluetooth__host__mesh.a(access.c.obj)
 .debug_loc     0x000000000001d2ef     0x530d zephyr/subsys/bluetooth/host/mesh/libsubsys__bluetooth__host__mesh.a(cfg_srv.c.obj)
 .debug_loc     0x00000000000225fc      0xc69 zephyr/subsys/bluetooth/host/mesh/libsubsys__bluetooth__host__mesh.a(health_srv.c.obj)
 .debug_loc     0x0000000000023265     0x1a53 zephyr/subsys/bluetooth/host/mesh/libsubsys__bluetooth__host__mesh.a(friend.c.obj)
 .debug_loc     0x0000000000024cb8     0x1b4b zephyr/subsys/bluetooth/host/mesh/libsubsys__bluetooth__host__mesh.a(prov.c.obj)
 .debug_loc     0x0000000000026803     0x14b1 zephyr/subsys/bluetooth/host/mesh/libsubsys__bluetooth__host__mesh.a(proxy.c.obj)
 .debug_loc     0x0000000000027cb4      0xb91 zephyr/subsys/net/libsubsys__net.a(buf.c.obj)
 .debug_loc     0x0000000000028845       0xdf zephyr/kernel/libkernel.a(device.c.obj)
 .debug_loc     0x0000000000028924      0x1ab zephyr/kernel/libkernel.a(init.c.obj)
 .debug_loc     0x0000000000028acf      0x64a zephyr/kernel/libkernel.a(queue.c.obj)
 .debug_loc     0x0000000000029119      0xfb6 zephyr/kernel/libkernel.a(sched.c.obj)
 .debug_loc     0x000000000002a0cf      0x4c9 zephyr/kernel/libkernel.a(sem.c.obj)
 .debug_loc     0x000000000002a598      0x45d zephyr/kernel/libkernel.a(sys_clock.c.obj)
 .debug_loc     0x000000000002a9f5       0x21 zephyr/kernel/libkernel.a(system_work_q.c.obj)
 .debug_loc     0x000000000002aa16      0xe6d zephyr/kernel/libkernel.a(thread.c.obj)
 .debug_loc     0x000000000002b883      0x8b2 zephyr/kernel/libkernel.a(work_q.c.obj)
 .debug_loc     0x000000000002c135      0x79f zephyr/kernel/libkernel.a(timer.c.obj)
 .debug_loc     0x000000000002c8d4      0x808 zephyr/kernel/libkernel.a(poll.c.obj)
 .debug_loc     0x000000000002d0dc       0x63 zephyr/kernel/libkernel.a(idle.c.obj)
 .debug_loc     0x000000000002d13f       0xa5 /opt/zephyr-sdk/sysroots/armv5-zephyr-eabi/usr/lib/arm-zephyr-eabi/6.2.0/armv7e-m/libgcc.a(_popcountsi2.o)
 .debug_loc     0x000000000002d1e4      0xd77 /opt/zephyr-sdk/sysroots/armv5-zephyr-eabi/usr/lib/arm-zephyr-eabi/6.2.0/armv7e-m/libgcc.a(_udivmoddi4.o)

.debug_ranges   0x0000000000000000     0x5d20
 .debug_ranges  0x0000000000000000       0x90 libapp.a(string.c.obj)
 .debug_ranges  0x0000000000000090       0x48 libapp.a(main.c.obj)
 .debug_ranges  0x00000000000000d8       0xf0 zephyr/libzephyr.a(printk.c.obj)
 .debug_ranges  0x00000000000001c8       0x10 zephyr/libzephyr.a(configs.c.obj)
 .debug_ranges  0x00000000000001d8       0x48 zephyr/libzephyr.a(utils.c.obj)
 .debug_ranges  0x0000000000000220       0x38 zephyr/libzephyr.a(ecc_dh.c.obj)
 .debug_ranges  0x0000000000000258      0x288 zephyr/libzephyr.a(ecc.c.obj)
 .debug_ranges  0x00000000000004e0       0x48 zephyr/libzephyr.a(aes_encrypt.c.obj)
 .debug_ranges  0x0000000000000528       0x50 zephyr/libzephyr.a(cmac_mode.c.obj)
 .debug_ranges  0x0000000000000578       0x28 zephyr/libzephyr.a(sha256.c.obj)
 .debug_ranges  0x00000000000005a0       0x30 zephyr/libzephyr.a(hmac.c.obj)
 .debug_ranges  0x00000000000005d0       0x28 zephyr/libzephyr.a(hmac_prng.c.obj)
 .debug_ranges  0x00000000000005f8       0x90 zephyr/libzephyr.a(stm32f4xx_ll_utils.c.obj)
 .debug_ranges  0x0000000000000688       0x18 zephyr/libzephyr.a(system_stm32f4xx.c.obj)
 .debug_ranges  0x00000000000006a0       0x10 zephyr/libzephyr.a(isr_tables.c.obj)
 .debug_ranges  0x00000000000006b0       0x18 zephyr/libzephyr.a(soc.c.obj)
 .debug_ranges  0x00000000000006c8       0x30 zephyr/libzephyr.a(soc_gpio.c.obj)
 .debug_ranges  0x00000000000006f8       0x30 zephyr/libzephyr.a(irq_init.c.obj)
 .debug_ranges  0x0000000000000728       0x28 zephyr/libzephyr.a(swap.S.obj)
 .debug_ranges  0x0000000000000750       0x98 zephyr/libzephyr.a(fault.c.obj)
 .debug_ranges  0x00000000000007e8       0x48 zephyr/libzephyr.a(irq_manage.c.obj)
 .debug_ranges  0x0000000000000830       0x40 zephyr/libzephyr.a(thread.c.obj)
 .debug_ranges  0x0000000000000870       0x28 zephyr/libzephyr.a(cpu_idle.S.obj)
 .debug_ranges  0x0000000000000898       0x18 zephyr/libzephyr.a(fatal.c.obj)
 .debug_ranges  0x00000000000008b0       0x28 zephyr/libzephyr.a(sys_fatal_error_handler.c.obj)
 .debug_ranges  0x00000000000008d8       0x10 zephyr/libzephyr.a(thread_abort.c.obj)
 .debug_ranges  0x00000000000008e8       0x10 zephyr/libzephyr.a(prep_c.c.obj)
 .debug_ranges  0x00000000000008f8       0x10 zephyr/libzephyr.a(nmi.c.obj)
 .debug_ranges  0x0000000000000908       0xe8 zephyr/libzephyr.a(arm_mpu.c.obj)
 .debug_ranges  0x00000000000009f0       0x20 zephyr/libzephyr.a(uart_console.c.obj)
 .debug_ranges  0x0000000000000a10       0xf0 zephyr/libzephyr.a(exti_stm32.c.obj)
 .debug_ranges  0x0000000000000b00       0xa0 zephyr/libzephyr.a(stm32_ll_clock.c.obj)
 .debug_ranges  0x0000000000000ba0       0x38 zephyr/libzephyr.a(stm32f4x_ll_clock.c.obj)
 .debug_ranges  0x0000000000000bd8       0x48 zephyr/libzephyr.a(flash_page_layout.c.obj)
 .debug_ranges  0x0000000000000c20       0x38 zephyr/libzephyr.a(flash_stm32.c.obj)
 .debug_ranges  0x0000000000000c58       0xd8 zephyr/libzephyr.a(flash_stm32f4x.c.obj)
 .debug_ranges  0x0000000000000d30       0x78 zephyr/libzephyr.a(gpio_stm32.c.obj)
 .debug_ranges  0x0000000000000da8      0x100 zephyr/libzephyr.a(i2c_ll_stm32_v1.c.obj)
 .debug_ranges  0x0000000000000ea8       0x68 zephyr/libzephyr.a(i2c_ll_stm32.c.obj)
 .debug_ranges  0x0000000000000f10       0x18 zephyr/libzephyr.a(pinmux_stm32.c.obj)
 .debug_ranges  0x0000000000000f28       0x88 zephyr/libzephyr.a(uart_stm32.c.obj)
 .debug_ranges  0x0000000000000fb0      0x3e0 zephyr/libzephyr.a(spi_ll_stm32.c.obj)
 .debug_ranges  0x0000000000001390       0xb8 zephyr/libzephyr.a(spi.c.obj)
 .debug_ranges  0x0000000000001448       0x68 zephyr/libzephyr.a(cortex_m_systick.c.obj)
 .debug_ranges  0x00000000000014b0       0x10 zephyr/boards/arm/96b_carbon/libboards__arm__96b_carbon.a(pinmux.c.obj)
 .debug_ranges  0x00000000000014c0      0x138 zephyr/subsys/bluetooth/host/libsubsys__bluetooth__host.a(hci_ecc.c.obj)
 .debug_ranges  0x00000000000015f8       0x48 zephyr/subsys/bluetooth/host/libsubsys__bluetooth__host.a(uuid.c.obj)
 .debug_ranges  0x0000000000001640      0x690 zephyr/subsys/bluetooth/host/libsubsys__bluetooth__host.a(hci_core.c.obj)
 .debug_ranges  0x0000000000001cd0       0x48 zephyr/subsys/bluetooth/host/libsubsys__bluetooth__host.a(crypto.c.obj)
 .debug_ranges  0x0000000000001d18      0x3b8 zephyr/subsys/bluetooth/host/libsubsys__bluetooth__host.a(conn.c.obj)
 .debug_ranges  0x00000000000020d0      0x248 zephyr/subsys/bluetooth/host/libsubsys__bluetooth__host.a(l2cap.c.obj)
 .debug_ranges  0x0000000000002318      0x410 zephyr/subsys/bluetooth/host/libsubsys__bluetooth__host.a(att.c.obj)
 .debug_ranges  0x0000000000002728      0x378 zephyr/subsys/bluetooth/host/libsubsys__bluetooth__host.a(gatt.c.obj)
 .debug_ranges  0x0000000000002aa0       0x40 zephyr/subsys/bluetooth/host/libsubsys__bluetooth__host.a(smp_null.c.obj)
 .debug_ranges  0x0000000000002ae0       0x38 zephyr/subsys/bluetooth/host/mesh/libsubsys__bluetooth__host__mesh.a(main.c.obj)
 .debug_ranges  0x0000000000002b18       0xf0 zephyr/subsys/bluetooth/host/mesh/libsubsys__bluetooth__host__mesh.a(adv.c.obj)
 .debug_ranges  0x0000000000002c08      0x108 zephyr/subsys/bluetooth/host/mesh/libsubsys__bluetooth__host__mesh.a(beacon.c.obj)
 .debug_ranges  0x0000000000002d10      0x320 zephyr/subsys/bluetooth/host/mesh/libsubsys__bluetooth__host__mesh.a(net.c.obj)
 .debug_ranges  0x0000000000003030      0x400 zephyr/subsys/bluetooth/host/mesh/libsubsys__bluetooth__host__mesh.a(transport.c.obj)
 .debug_ranges  0x0000000000003430      0x2a8 zephyr/subsys/bluetooth/host/mesh/libsubsys__bluetooth__host__mesh.a(crypto.c.obj)
 .debug_ranges  0x00000000000036d8      0x280 zephyr/subsys/bluetooth/host/mesh/libsubsys__bluetooth__host__mesh.a(access.c.obj)
 .debug_ranges  0x0000000000003958      0x4e8 zephyr/subsys/bluetooth/host/mesh/libsubsys__bluetooth__host__mesh.a(cfg_srv.c.obj)
 .debug_ranges  0x0000000000003e40      0x148 zephyr/subsys/bluetooth/host/mesh/libsubsys__bluetooth__host__mesh.a(health_srv.c.obj)
 .debug_ranges  0x0000000000003f88      0x328 zephyr/subsys/bluetooth/host/mesh/libsubsys__bluetooth__host__mesh.a(friend.c.obj)
 .debug_ranges  0x00000000000042b0      0x5c8 zephyr/subsys/bluetooth/host/mesh/libsubsys__bluetooth__host__mesh.a(prov.c.obj)
 .debug_ranges  0x0000000000004878      0x310 zephyr/subsys/bluetooth/host/mesh/libsubsys__bluetooth__host__mesh.a(proxy.c.obj)
 .debug_ranges  0x0000000000004b88      0x320 zephyr/subsys/net/libsubsys__net.a(buf.c.obj)
 .debug_ranges  0x0000000000004ea8       0x20 zephyr/kernel/libkernel.a(device.c.obj)
 .debug_ranges  0x0000000000004ec8       0x10 zephyr/kernel/libkernel.a(errno.c.obj)
 .debug_ranges  0x0000000000004ed8       0x68 zephyr/kernel/libkernel.a(init.c.obj)
 .debug_ranges  0x0000000000004f40      0x100 zephyr/kernel/libkernel.a(queue.c.obj)
 .debug_ranges  0x0000000000005040      0x2b8 zephyr/kernel/libkernel.a(sched.c.obj)
 .debug_ranges  0x00000000000052f8       0xf0 zephyr/kernel/libkernel.a(sem.c.obj)
 .debug_ranges  0x00000000000053e8      0x198 zephyr/kernel/libkernel.a(sys_clock.c.obj)
 .debug_ranges  0x0000000000005580       0x10 zephyr/kernel/libkernel.a(system_work_q.c.obj)
 .debug_ranges  0x0000000000005590      0x220 zephyr/kernel/libkernel.a(thread.c.obj)
 .debug_ranges  0x00000000000057b0      0x100 zephyr/kernel/libkernel.a(work_q.c.obj)
 .debug_ranges  0x00000000000058b0      0x158 zephyr/kernel/libkernel.a(timer.c.obj)
 .debug_ranges  0x0000000000005a08      0x220 zephyr/kernel/libkernel.a(poll.c.obj)
 .debug_ranges  0x0000000000005c28       0x18 zephyr/kernel/libkernel.a(idle.c.obj)
 .debug_ranges  0x0000000000005c40       0x10 zephyr/CMakeFiles/offsets.dir/arch/arm/core/offsets/offsets.c.obj
 .debug_ranges  0x0000000000005c50       0xd0 /opt/zephyr-sdk/sysroots/armv5-zephyr-eabi/usr/lib/arm-zephyr-eabi/6.2.0/armv7e-m/libgcc.a(_udivmoddi4.o)

.debug_frame    0x0000000000000000     0x6e70
 .debug_frame   0x0000000000000000      0x154 libapp.a(string.c.obj)
 .debug_frame   0x0000000000000154       0xb8 libapp.a(main.c.obj)
 .debug_frame   0x000000000000020c      0x188 zephyr/libzephyr.a(printk.c.obj)
 .debug_frame   0x0000000000000394       0x20 zephyr/libzephyr.a(configs.c.obj)
 .debug_frame   0x00000000000003b4       0x68 zephyr/libzephyr.a(utils.c.obj)
 .debug_frame   0x000000000000041c       0x90 zephyr/libzephyr.a(ecc_dh.c.obj)
 .debug_frame   0x00000000000004ac      0x510 zephyr/libzephyr.a(ecc.c.obj)
 .debug_frame   0x00000000000009bc       0xac zephyr/libzephyr.a(aes_encrypt.c.obj)
 .debug_frame   0x0000000000000a68       0xb0 zephyr/libzephyr.a(cmac_mode.c.obj)
 .debug_frame   0x0000000000000b18       0x94 zephyr/libzephyr.a(sha256.c.obj)
 .debug_frame   0x0000000000000bac       0xa8 zephyr/libzephyr.a(hmac.c.obj)
 .debug_frame   0x0000000000000c54       0x98 zephyr/libzephyr.a(hmac_prng.c.obj)
 .debug_frame   0x0000000000000cec       0xe0 zephyr/libzephyr.a(stm32f4xx_ll_utils.c.obj)
 .debug_frame   0x0000000000000dcc       0x38 zephyr/libzephyr.a(system_stm32f4xx.c.obj)
 .debug_frame   0x0000000000000e04       0x20 zephyr/libzephyr.a(isr_tables.c.obj)
 .debug_frame   0x0000000000000e24       0x30 zephyr/libzephyr.a(soc.c.obj)
 .debug_frame   0x0000000000000e54       0x84 zephyr/libzephyr.a(soc_gpio.c.obj)
 .debug_frame   0x0000000000000ed8       0x20 zephyr/libzephyr.a(irq_init.c.obj)
 .debug_frame   0x0000000000000ef8       0xcc zephyr/libzephyr.a(fault.c.obj)
 .debug_frame   0x0000000000000fc4       0x60 zephyr/libzephyr.a(irq_manage.c.obj)
 .debug_frame   0x0000000000001024       0x30 zephyr/libzephyr.a(thread.c.obj)
 .debug_frame   0x0000000000001054       0x48 zephyr/libzephyr.a(fatal.c.obj)
 .debug_frame   0x000000000000109c       0x2c zephyr/libzephyr.a(sys_fatal_error_handler.c.obj)
 .debug_frame   0x00000000000010c8       0x34 zephyr/libzephyr.a(thread_abort.c.obj)
 .debug_frame   0x00000000000010fc       0x28 zephyr/libzephyr.a(prep_c.c.obj)
 .debug_frame   0x0000000000001124       0x2c zephyr/libzephyr.a(nmi.c.obj)
 .debug_frame   0x0000000000001150       0x64 zephyr/libzephyr.a(arm_mpu.c.obj)
 .debug_frame   0x00000000000011b4       0x54 zephyr/libzephyr.a(uart_console.c.obj)
 .debug_frame   0x0000000000001208      0x168 zephyr/libzephyr.a(exti_stm32.c.obj)
 .debug_frame   0x0000000000001370       0x70 zephyr/libzephyr.a(stm32_ll_clock.c.obj)
 .debug_frame   0x00000000000013e0       0x48 zephyr/libzephyr.a(stm32f4x_ll_clock.c.obj)
 .debug_frame   0x0000000000001428       0xa4 zephyr/libzephyr.a(flash_page_layout.c.obj)
 .debug_frame   0x00000000000014cc       0xb0 zephyr/libzephyr.a(flash_stm32.c.obj)
 .debug_frame   0x000000000000157c       0x90 zephyr/libzephyr.a(flash_stm32f4x.c.obj)
 .debug_frame   0x000000000000160c       0xdc zephyr/libzephyr.a(gpio_stm32.c.obj)
 .debug_frame   0x00000000000016e8       0x70 zephyr/libzephyr.a(i2c_ll_stm32_v1.c.obj)
 .debug_frame   0x0000000000001758       0x70 zephyr/libzephyr.a(i2c_ll_stm32.c.obj)
 .debug_frame   0x00000000000017c8       0x54 zephyr/libzephyr.a(pinmux_stm32.c.obj)
 .debug_frame   0x000000000000181c       0x50 zephyr/libzephyr.a(uart_stm32.c.obj)
 .debug_frame   0x000000000000186c      0x154 zephyr/libzephyr.a(spi_ll_stm32.c.obj)
 .debug_frame   0x00000000000019c0       0xc0 zephyr/libzephyr.a(spi.c.obj)
 .debug_frame   0x0000000000001a80       0x58 zephyr/libzephyr.a(cortex_m_systick.c.obj)
 .debug_frame   0x0000000000001ad8       0x28 zephyr/boards/arm/96b_carbon/libboards__arm__96b_carbon.a(pinmux.c.obj)
 .debug_frame   0x0000000000001b00       0xb8 zephyr/subsys/bluetooth/host/libsubsys__bluetooth__host.a(hci_ecc.c.obj)
 .debug_frame   0x0000000000001bb8       0x5c zephyr/subsys/bluetooth/host/libsubsys__bluetooth__host.a(uuid.c.obj)
 .debug_frame   0x0000000000001c14      0x594 zephyr/subsys/bluetooth/host/libsubsys__bluetooth__host.a(hci_core.c.obj)
 .debug_frame   0x00000000000021a8       0xb8 zephyr/subsys/bluetooth/host/libsubsys__bluetooth__host.a(crypto.c.obj)
 .debug_frame   0x0000000000002260      0x440 zephyr/subsys/bluetooth/host/libsubsys__bluetooth__host.a(conn.c.obj)
 .debug_frame   0x00000000000026a0      0x200 zephyr/subsys/bluetooth/host/libsubsys__bluetooth__host.a(l2cap.c.obj)
 .debug_frame   0x00000000000028a0      0x6ec zephyr/subsys/bluetooth/host/libsubsys__bluetooth__host.a(att.c.obj)
 .debug_frame   0x0000000000002f8c      0x430 zephyr/subsys/bluetooth/host/libsubsys__bluetooth__host.a(gatt.c.obj)
 .debug_frame   0x00000000000033bc       0x80 zephyr/subsys/bluetooth/host/libsubsys__bluetooth__host.a(smp_null.c.obj)
 .debug_frame   0x000000000000343c       0xb4 zephyr/subsys/bluetooth/host/mesh/libsubsys__bluetooth__host__mesh.a(main.c.obj)
 .debug_frame   0x00000000000034f0      0x110 zephyr/subsys/bluetooth/host/mesh/libsubsys__bluetooth__host__mesh.a(adv.c.obj)
 .debug_frame   0x0000000000003600      0x130 zephyr/subsys/bluetooth/host/mesh/libsubsys__bluetooth__host__mesh.a(beacon.c.obj)
 .debug_frame   0x0000000000003730      0x398 zephyr/subsys/bluetooth/host/mesh/libsubsys__bluetooth__host__mesh.a(net.c.obj)
 .debug_frame   0x0000000000003ac8      0x3c8 zephyr/subsys/bluetooth/host/mesh/libsubsys__bluetooth__host__mesh.a(transport.c.obj)
 .debug_frame   0x0000000000003e90      0x35c zephyr/subsys/bluetooth/host/mesh/libsubsys__bluetooth__host__mesh.a(crypto.c.obj)
 .debug_frame   0x00000000000041ec      0x29c zephyr/subsys/bluetooth/host/mesh/libsubsys__bluetooth__host__mesh.a(access.c.obj)
 .debug_frame   0x0000000000004488      0xacc zephyr/subsys/bluetooth/host/mesh/libsubsys__bluetooth__host__mesh.a(cfg_srv.c.obj)
 .debug_frame   0x0000000000004f54      0x288 zephyr/subsys/bluetooth/host/mesh/libsubsys__bluetooth__host__mesh.a(health_srv.c.obj)
 .debug_frame   0x00000000000051dc      0x414 zephyr/subsys/bluetooth/host/mesh/libsubsys__bluetooth__host__mesh.a(friend.c.obj)
 .debug_frame   0x00000000000055f0      0x5bc zephyr/subsys/bluetooth/host/mesh/libsubsys__bluetooth__host__mesh.a(prov.c.obj)
 .debug_frame   0x0000000000005bac      0x394 zephyr/subsys/bluetooth/host/mesh/libsubsys__bluetooth__host__mesh.a(proxy.c.obj)
 .debug_frame   0x0000000000005f40      0x328 zephyr/subsys/net/libsubsys__net.a(buf.c.obj)
 .debug_frame   0x0000000000006268       0x68 zephyr/kernel/libkernel.a(device.c.obj)
 .debug_frame   0x00000000000062d0       0x20 zephyr/kernel/libkernel.a(errno.c.obj)
 .debug_frame   0x00000000000062f0       0x88 zephyr/kernel/libkernel.a(init.c.obj)
 .debug_frame   0x0000000000006378       0xdc zephyr/kernel/libkernel.a(queue.c.obj)
 .debug_frame   0x0000000000006454      0x210 zephyr/kernel/libkernel.a(sched.c.obj)
 .debug_frame   0x0000000000006664       0xb4 zephyr/kernel/libkernel.a(sem.c.obj)
 .debug_frame   0x0000000000006718       0xac zephyr/kernel/libkernel.a(sys_clock.c.obj)
 .debug_frame   0x00000000000067c4       0x28 zephyr/kernel/libkernel.a(system_work_q.c.obj)
 .debug_frame   0x00000000000067ec      0x268 zephyr/kernel/libkernel.a(thread.c.obj)
 .debug_frame   0x0000000000006a54       0xcc zephyr/kernel/libkernel.a(work_q.c.obj)
 .debug_frame   0x0000000000006b20      0x120 zephyr/kernel/libkernel.a(timer.c.obj)
 .debug_frame   0x0000000000006c40      0x114 zephyr/kernel/libkernel.a(poll.c.obj)
 .debug_frame   0x0000000000006d54       0x38 zephyr/kernel/libkernel.a(idle.c.obj)
 .debug_frame   0x0000000000006d8c       0x20 zephyr/CMakeFiles/offsets.dir/arch/arm/core/offsets/offsets.c.obj
 .debug_frame   0x0000000000006dac       0x44 /opt/zephyr-sdk/sysroots/armv5-zephyr-eabi/usr/lib/arm-zephyr-eabi/6.2.0/armv7e-m/libgcc.a(_aeabi_ldivmod.o)
 .debug_frame   0x0000000000006df0       0x2c /opt/zephyr-sdk/sysroots/armv5-zephyr-eabi/usr/lib/arm-zephyr-eabi/6.2.0/armv7e-m/libgcc.a(_aeabi_uldivmod.o)
 .debug_frame   0x0000000000006e1c       0x20 /opt/zephyr-sdk/sysroots/armv5-zephyr-eabi/usr/lib/arm-zephyr-eabi/6.2.0/armv7e-m/libgcc.a(_popcountsi2.o)
 .debug_frame   0x0000000000006e3c       0x34 /opt/zephyr-sdk/sysroots/armv5-zephyr-eabi/usr/lib/arm-zephyr-eabi/6.2.0/armv7e-m/libgcc.a(_udivmoddi4.o)
